
roboime-tx.elf:     file format elf32-littlearm

Sections:
Idx Name          Size      VMA       LMA       File off  Algn
  0 .isr_vector   00000188  08000000  08000000  00010000  2**0
                  CONTENTS, ALLOC, LOAD, READONLY, DATA
  1 .text         00002dd8  08000188  08000188  00010188  2**2
                  CONTENTS, ALLOC, LOAD, READONLY, CODE
  2 .rodata       00000058  08002f60  08002f60  00012f60  2**2
                  CONTENTS, ALLOC, LOAD, READONLY, DATA
  3 .init_array   00000004  08002fb8  08002fb8  00012fb8  2**2
                  CONTENTS, ALLOC, LOAD, DATA
  4 .fini_array   00000004  08002fbc  08002fbc  00012fbc  2**2
                  CONTENTS, ALLOC, LOAD, DATA
  5 .data         0000008c  20000000  08002fc0  00020000  2**2
                  CONTENTS, ALLOC, LOAD, DATA
  6 .ccmram       00000000  10000000  10000000  0002008c  2**0
                  CONTENTS
  7 .bss          000000c8  2000008c  2000008c  0002008c  2**2
                  ALLOC
  8 ._user_heap_stack 00000400  20000154  20000154  0002008c  2**0
                  ALLOC
  9 .ARM.attributes 00000030  00000000  00000000  0002008c  2**0
                  CONTENTS, READONLY
 10 .debug_info   00009d63  00000000  00000000  000200bc  2**0
                  CONTENTS, READONLY, DEBUGGING
 11 .debug_abbrev 00002199  00000000  00000000  00029e1f  2**0
                  CONTENTS, READONLY, DEBUGGING
 12 .debug_aranges 00000a80  00000000  00000000  0002bfb8  2**3
                  CONTENTS, READONLY, DEBUGGING
 13 .debug_ranges 00000958  00000000  00000000  0002ca38  2**3
                  CONTENTS, READONLY, DEBUGGING
 14 .debug_line   0000407d  00000000  00000000  0002d390  2**0
                  CONTENTS, READONLY, DEBUGGING
 15 .debug_str    00003bb5  00000000  00000000  0003140d  2**0
                  CONTENTS, READONLY, DEBUGGING
 16 .comment      0000007e  00000000  00000000  00034fc2  2**0
                  CONTENTS, READONLY
 17 .debug_frame  00002d40  00000000  00000000  00035040  2**2
                  CONTENTS, READONLY, DEBUGGING
 18 .stab         0000003c  00000000  00000000  00037d80  2**2
                  CONTENTS, READONLY, DEBUGGING
 19 .stabstr      000000ac  00000000  00000000  00037dbc  2**0
                  CONTENTS, READONLY, DEBUGGING

Disassembly of section .text:

08000188 <__do_global_dtors_aux>:
 8000188:	b510      	push	{r4, lr}
 800018a:	4c05      	ldr	r4, [pc, #20]	; (80001a0 <__do_global_dtors_aux+0x18>)
 800018c:	7823      	ldrb	r3, [r4, #0]
 800018e:	b933      	cbnz	r3, 800019e <__do_global_dtors_aux+0x16>
 8000190:	4b04      	ldr	r3, [pc, #16]	; (80001a4 <__do_global_dtors_aux+0x1c>)
 8000192:	b113      	cbz	r3, 800019a <__do_global_dtors_aux+0x12>
 8000194:	4804      	ldr	r0, [pc, #16]	; (80001a8 <__do_global_dtors_aux+0x20>)
 8000196:	f3af 8000 	nop.w
 800019a:	2301      	movs	r3, #1
 800019c:	7023      	strb	r3, [r4, #0]
 800019e:	bd10      	pop	{r4, pc}
 80001a0:	2000008c 	.word	0x2000008c
 80001a4:	00000000 	.word	0x00000000
 80001a8:	08002f48 	.word	0x08002f48

080001ac <frame_dummy>:
 80001ac:	b508      	push	{r3, lr}
 80001ae:	4b03      	ldr	r3, [pc, #12]	; (80001bc <frame_dummy+0x10>)
 80001b0:	b11b      	cbz	r3, 80001ba <frame_dummy+0xe>
 80001b2:	4903      	ldr	r1, [pc, #12]	; (80001c0 <frame_dummy+0x14>)
 80001b4:	4803      	ldr	r0, [pc, #12]	; (80001c4 <frame_dummy+0x18>)
 80001b6:	f3af 8000 	nop.w
 80001ba:	bd08      	pop	{r3, pc}
 80001bc:	00000000 	.word	0x00000000
 80001c0:	20000090 	.word	0x20000090
 80001c4:	08002f48 	.word	0x08002f48

080001c8 <SystemInit>:
  *         SystemFrequency variable.
  * @param  None
  * @retval None
  */
void SystemInit(void)
{
 80001c8:	b580      	push	{r7, lr}
 80001ca:	af00      	add	r7, sp, #0
  /* FPU settings ------------------------------------------------------------*/
  #if (__FPU_PRESENT == 1) && (__FPU_USED == 1)
	SCB->CPACR |= ((3UL << 10*2)|(3UL << 11*2));  /* set CP10 and CP11 Full Access */
 80001cc:	4a16      	ldr	r2, [pc, #88]	; (8000228 <SystemInit+0x60>)
 80001ce:	4b16      	ldr	r3, [pc, #88]	; (8000228 <SystemInit+0x60>)
 80001d0:	f8d3 3088 	ldr.w	r3, [r3, #136]	; 0x88
 80001d4:	f443 0370 	orr.w	r3, r3, #15728640	; 0xf00000
 80001d8:	f8c2 3088 	str.w	r3, [r2, #136]	; 0x88
  #endif

  /* Reset the RCC clock configuration to the default reset state ------------*/
  /* Set HSION bit */
  RCC->CR |= (uint32_t)0x00000001;
 80001dc:	4a13      	ldr	r2, [pc, #76]	; (800022c <SystemInit+0x64>)
 80001de:	4b13      	ldr	r3, [pc, #76]	; (800022c <SystemInit+0x64>)
 80001e0:	681b      	ldr	r3, [r3, #0]
 80001e2:	f043 0301 	orr.w	r3, r3, #1
 80001e6:	6013      	str	r3, [r2, #0]

  /* Reset CFGR register */
  RCC->CFGR = 0x00000000;
 80001e8:	4b10      	ldr	r3, [pc, #64]	; (800022c <SystemInit+0x64>)
 80001ea:	2200      	movs	r2, #0
 80001ec:	609a      	str	r2, [r3, #8]

  /* Reset HSEON, CSSON and PLLON bits */
  RCC->CR &= (uint32_t)0xFEF6FFFF;
 80001ee:	4a0f      	ldr	r2, [pc, #60]	; (800022c <SystemInit+0x64>)
 80001f0:	4b0e      	ldr	r3, [pc, #56]	; (800022c <SystemInit+0x64>)
 80001f2:	681b      	ldr	r3, [r3, #0]
 80001f4:	f023 7384 	bic.w	r3, r3, #17301504	; 0x1080000
 80001f8:	f423 3380 	bic.w	r3, r3, #65536	; 0x10000
 80001fc:	6013      	str	r3, [r2, #0]

  /* Reset PLLCFGR register */
  RCC->PLLCFGR = 0x24003010;
 80001fe:	4b0b      	ldr	r3, [pc, #44]	; (800022c <SystemInit+0x64>)
 8000200:	4a0b      	ldr	r2, [pc, #44]	; (8000230 <SystemInit+0x68>)
 8000202:	605a      	str	r2, [r3, #4]

  /* Reset HSEBYP bit */
  RCC->CR &= (uint32_t)0xFFFBFFFF;
 8000204:	4a09      	ldr	r2, [pc, #36]	; (800022c <SystemInit+0x64>)
 8000206:	4b09      	ldr	r3, [pc, #36]	; (800022c <SystemInit+0x64>)
 8000208:	681b      	ldr	r3, [r3, #0]
 800020a:	f423 2380 	bic.w	r3, r3, #262144	; 0x40000
 800020e:	6013      	str	r3, [r2, #0]

  /* Disable all interrupts */
  RCC->CIR = 0x00000000;
 8000210:	4b06      	ldr	r3, [pc, #24]	; (800022c <SystemInit+0x64>)
 8000212:	2200      	movs	r2, #0
 8000214:	60da      	str	r2, [r3, #12]
  SystemInit_ExtMemCtl(); 
#endif /* DATA_IN_ExtSRAM */
         
  /* Configure the System clock source, PLL Multiplier and Divider factors, 
     AHB/APBx prescalers and Flash settings ----------------------------------*/
  SetSysClock();
 8000216:	f000 f80d 	bl	8000234 <SetSysClock>

  /* Configure the Vector Table location add offset address ------------------*/
#ifdef VECT_TAB_SRAM
  SCB->VTOR = SRAM_BASE | VECT_TAB_OFFSET; /* Vector Table Relocation in Internal SRAM */
#else
  SCB->VTOR = FLASH_BASE | VECT_TAB_OFFSET; /* Vector Table Relocation in Internal FLASH */
 800021a:	4b03      	ldr	r3, [pc, #12]	; (8000228 <SystemInit+0x60>)
 800021c:	f04f 6200 	mov.w	r2, #134217728	; 0x8000000
 8000220:	609a      	str	r2, [r3, #8]
#endif
}
 8000222:	bf00      	nop
 8000224:	bd80      	pop	{r7, pc}
 8000226:	bf00      	nop
 8000228:	e000ed00 	.word	0xe000ed00
 800022c:	40023800 	.word	0x40023800
 8000230:	24003010 	.word	0x24003010

08000234 <SetSysClock>:
  *         is reset to the default reset state (done in SystemInit() function).   
  * @param  None
  * @retval None
  */
static void SetSysClock(void)
{
 8000234:	b480      	push	{r7}
 8000236:	b083      	sub	sp, #12
 8000238:	af00      	add	r7, sp, #0
/******************************************************************************/
/*            PLL (clocked by HSE) used as System clock source                */
/******************************************************************************/
  __IO uint32_t StartUpCounter = 0, HSEStatus = 0;
 800023a:	2300      	movs	r3, #0
 800023c:	607b      	str	r3, [r7, #4]
 800023e:	2300      	movs	r3, #0
 8000240:	603b      	str	r3, [r7, #0]
  
  /* Enable HSE */
  RCC->CR |= ((uint32_t)RCC_CR_HSEON);
 8000242:	4a36      	ldr	r2, [pc, #216]	; (800031c <SetSysClock+0xe8>)
 8000244:	4b35      	ldr	r3, [pc, #212]	; (800031c <SetSysClock+0xe8>)
 8000246:	681b      	ldr	r3, [r3, #0]
 8000248:	f443 3380 	orr.w	r3, r3, #65536	; 0x10000
 800024c:	6013      	str	r3, [r2, #0]
 
  /* Wait till HSE is ready and if Time out is reached exit */
  do
  {
    HSEStatus = RCC->CR & RCC_CR_HSERDY;
 800024e:	4b33      	ldr	r3, [pc, #204]	; (800031c <SetSysClock+0xe8>)
 8000250:	681b      	ldr	r3, [r3, #0]
 8000252:	f403 3300 	and.w	r3, r3, #131072	; 0x20000
 8000256:	603b      	str	r3, [r7, #0]
    StartUpCounter++;
 8000258:	687b      	ldr	r3, [r7, #4]
 800025a:	3301      	adds	r3, #1
 800025c:	607b      	str	r3, [r7, #4]
  } while((HSEStatus == 0) && (StartUpCounter != HSE_STARTUP_TIMEOUT));
 800025e:	683b      	ldr	r3, [r7, #0]
 8000260:	2b00      	cmp	r3, #0
 8000262:	d103      	bne.n	800026c <SetSysClock+0x38>
 8000264:	687b      	ldr	r3, [r7, #4]
 8000266:	f5b3 6fa0 	cmp.w	r3, #1280	; 0x500
 800026a:	d1f0      	bne.n	800024e <SetSysClock+0x1a>

  if ((RCC->CR & RCC_CR_HSERDY) != RESET)
 800026c:	4b2b      	ldr	r3, [pc, #172]	; (800031c <SetSysClock+0xe8>)
 800026e:	681b      	ldr	r3, [r3, #0]
 8000270:	f403 3300 	and.w	r3, r3, #131072	; 0x20000
 8000274:	2b00      	cmp	r3, #0
 8000276:	d002      	beq.n	800027e <SetSysClock+0x4a>
  {
    HSEStatus = (uint32_t)0x01;
 8000278:	2301      	movs	r3, #1
 800027a:	603b      	str	r3, [r7, #0]
 800027c:	e001      	b.n	8000282 <SetSysClock+0x4e>
  }
  else
  {
    HSEStatus = (uint32_t)0x00;
 800027e:	2300      	movs	r3, #0
 8000280:	603b      	str	r3, [r7, #0]
  }

  if (HSEStatus == (uint32_t)0x01)
 8000282:	683b      	ldr	r3, [r7, #0]
 8000284:	2b01      	cmp	r3, #1
 8000286:	d142      	bne.n	800030e <SetSysClock+0xda>
  {
    /* Enable high performance mode, System frequency up to 168 MHz */
    RCC->APB1ENR |= RCC_APB1ENR_PWREN;
 8000288:	4a24      	ldr	r2, [pc, #144]	; (800031c <SetSysClock+0xe8>)
 800028a:	4b24      	ldr	r3, [pc, #144]	; (800031c <SetSysClock+0xe8>)
 800028c:	6c1b      	ldr	r3, [r3, #64]	; 0x40
 800028e:	f043 5380 	orr.w	r3, r3, #268435456	; 0x10000000
 8000292:	6413      	str	r3, [r2, #64]	; 0x40
    PWR->CR |= PWR_CR_PMODE;  
 8000294:	4a22      	ldr	r2, [pc, #136]	; (8000320 <SetSysClock+0xec>)
 8000296:	4b22      	ldr	r3, [pc, #136]	; (8000320 <SetSysClock+0xec>)
 8000298:	681b      	ldr	r3, [r3, #0]
 800029a:	f443 4340 	orr.w	r3, r3, #49152	; 0xc000
 800029e:	6013      	str	r3, [r2, #0]

    /* HCLK = SYSCLK / 1*/
    RCC->CFGR |= RCC_CFGR_HPRE_DIV1;
 80002a0:	4a1e      	ldr	r2, [pc, #120]	; (800031c <SetSysClock+0xe8>)
 80002a2:	4b1e      	ldr	r3, [pc, #120]	; (800031c <SetSysClock+0xe8>)
 80002a4:	689b      	ldr	r3, [r3, #8]
 80002a6:	6093      	str	r3, [r2, #8]
      
    /* PCLK2 = HCLK / 2*/
    RCC->CFGR |= RCC_CFGR_PPRE2_DIV2;
 80002a8:	4a1c      	ldr	r2, [pc, #112]	; (800031c <SetSysClock+0xe8>)
 80002aa:	4b1c      	ldr	r3, [pc, #112]	; (800031c <SetSysClock+0xe8>)
 80002ac:	689b      	ldr	r3, [r3, #8]
 80002ae:	f443 4300 	orr.w	r3, r3, #32768	; 0x8000
 80002b2:	6093      	str	r3, [r2, #8]
    
    /* PCLK1 = HCLK / 4*/
    RCC->CFGR |= RCC_CFGR_PPRE1_DIV4;
 80002b4:	4a19      	ldr	r2, [pc, #100]	; (800031c <SetSysClock+0xe8>)
 80002b6:	4b19      	ldr	r3, [pc, #100]	; (800031c <SetSysClock+0xe8>)
 80002b8:	689b      	ldr	r3, [r3, #8]
 80002ba:	f443 53a0 	orr.w	r3, r3, #5120	; 0x1400
 80002be:	6093      	str	r3, [r2, #8]

    /* Configure the main PLL */
    RCC->PLLCFGR = PLL_M | (PLL_N << 6) | (((PLL_P >> 1) -1) << 16) |
 80002c0:	4b16      	ldr	r3, [pc, #88]	; (800031c <SetSysClock+0xe8>)
 80002c2:	4a18      	ldr	r2, [pc, #96]	; (8000324 <SetSysClock+0xf0>)
 80002c4:	605a      	str	r2, [r3, #4]
                   (RCC_PLLCFGR_PLLSRC_HSE) | (PLL_Q << 24);

    /* Enable the main PLL */
    RCC->CR |= RCC_CR_PLLON;
 80002c6:	4a15      	ldr	r2, [pc, #84]	; (800031c <SetSysClock+0xe8>)
 80002c8:	4b14      	ldr	r3, [pc, #80]	; (800031c <SetSysClock+0xe8>)
 80002ca:	681b      	ldr	r3, [r3, #0]
 80002cc:	f043 7380 	orr.w	r3, r3, #16777216	; 0x1000000
 80002d0:	6013      	str	r3, [r2, #0]

    /* Wait till the main PLL is ready */
    while((RCC->CR & RCC_CR_PLLRDY) == 0)
 80002d2:	bf00      	nop
 80002d4:	4b11      	ldr	r3, [pc, #68]	; (800031c <SetSysClock+0xe8>)
 80002d6:	681b      	ldr	r3, [r3, #0]
 80002d8:	f003 7300 	and.w	r3, r3, #33554432	; 0x2000000
 80002dc:	2b00      	cmp	r3, #0
 80002de:	d0f9      	beq.n	80002d4 <SetSysClock+0xa0>
    {
    }
   
    /* Configure Flash prefetch, Instruction cache, Data cache and wait state */
    FLASH->ACR = FLASH_ACR_ICEN |FLASH_ACR_DCEN |FLASH_ACR_LATENCY_5WS;
 80002e0:	4b11      	ldr	r3, [pc, #68]	; (8000328 <SetSysClock+0xf4>)
 80002e2:	f240 6205 	movw	r2, #1541	; 0x605
 80002e6:	601a      	str	r2, [r3, #0]

    /* Select the main PLL as system clock source */
    RCC->CFGR &= (uint32_t)((uint32_t)~(RCC_CFGR_SW));
 80002e8:	4a0c      	ldr	r2, [pc, #48]	; (800031c <SetSysClock+0xe8>)
 80002ea:	4b0c      	ldr	r3, [pc, #48]	; (800031c <SetSysClock+0xe8>)
 80002ec:	689b      	ldr	r3, [r3, #8]
 80002ee:	f023 0303 	bic.w	r3, r3, #3
 80002f2:	6093      	str	r3, [r2, #8]
    RCC->CFGR |= RCC_CFGR_SW_PLL;
 80002f4:	4a09      	ldr	r2, [pc, #36]	; (800031c <SetSysClock+0xe8>)
 80002f6:	4b09      	ldr	r3, [pc, #36]	; (800031c <SetSysClock+0xe8>)
 80002f8:	689b      	ldr	r3, [r3, #8]
 80002fa:	f043 0302 	orr.w	r3, r3, #2
 80002fe:	6093      	str	r3, [r2, #8]

    /* Wait till the main PLL is used as system clock source */
    while ((RCC->CFGR & (uint32_t)RCC_CFGR_SWS ) != RCC_CFGR_SWS_PLL);
 8000300:	bf00      	nop
 8000302:	4b06      	ldr	r3, [pc, #24]	; (800031c <SetSysClock+0xe8>)
 8000304:	689b      	ldr	r3, [r3, #8]
 8000306:	f003 030c 	and.w	r3, r3, #12
 800030a:	2b08      	cmp	r3, #8
 800030c:	d1f9      	bne.n	8000302 <SetSysClock+0xce>
  else
  { /* If HSE fails to start-up, the application will have wrong clock
         configuration. User can add here some code to deal with this error */
  }

}
 800030e:	bf00      	nop
 8000310:	370c      	adds	r7, #12
 8000312:	46bd      	mov	sp, r7
 8000314:	f85d 7b04 	ldr.w	r7, [sp], #4
 8000318:	4770      	bx	lr
 800031a:	bf00      	nop
 800031c:	40023800 	.word	0x40023800
 8000320:	40007000 	.word	0x40007000
 8000324:	07405408 	.word	0x07405408
 8000328:	40023c00 	.word	0x40023c00

0800032c <NMI_Handler>:
  * @brief   This function handles NMI exception.
  * @param  None
  * @retval None
  */
void NMI_Handler(void)
{
 800032c:	b480      	push	{r7}
 800032e:	af00      	add	r7, sp, #0
}
 8000330:	bf00      	nop
 8000332:	46bd      	mov	sp, r7
 8000334:	f85d 7b04 	ldr.w	r7, [sp], #4
 8000338:	4770      	bx	lr
 800033a:	bf00      	nop

0800033c <HardFault_Handler>:
  * @brief  This function handles Hard Fault exception.
  * @param  None
  * @retval None
  */
void HardFault_Handler(void)
{
 800033c:	b480      	push	{r7}
 800033e:	af00      	add	r7, sp, #0
  /* Go to infinite loop when Hard Fault exception occurs */
  while (1)
  {
  }
 8000340:	e7fe      	b.n	8000340 <HardFault_Handler+0x4>
 8000342:	bf00      	nop

08000344 <MemManage_Handler>:
  * @brief  This function handles Memory Manage exception.
  * @param  None
  * @retval None
  */
void MemManage_Handler(void)
{
 8000344:	b480      	push	{r7}
 8000346:	af00      	add	r7, sp, #0
  /* Go to infinite loop when Memory Manage exception occurs */
  while (1)
  {
  }
 8000348:	e7fe      	b.n	8000348 <MemManage_Handler+0x4>
 800034a:	bf00      	nop

0800034c <BusFault_Handler>:
  * @brief  This function handles Bus Fault exception.
  * @param  None
  * @retval None
  */
void BusFault_Handler(void)
{
 800034c:	b480      	push	{r7}
 800034e:	af00      	add	r7, sp, #0
  /* Go to infinite loop when Bus Fault exception occurs */
  while (1)
  {
  }
 8000350:	e7fe      	b.n	8000350 <BusFault_Handler+0x4>
 8000352:	bf00      	nop

08000354 <UsageFault_Handler>:
  * @brief  This function handles Usage Fault exception.
  * @param  None
  * @retval None
  */
void UsageFault_Handler(void)
{
 8000354:	b480      	push	{r7}
 8000356:	af00      	add	r7, sp, #0
  /* Go to infinite loop when Usage Fault exception occurs */
  while (1)
  {
  }
 8000358:	e7fe      	b.n	8000358 <UsageFault_Handler+0x4>
 800035a:	bf00      	nop

0800035c <SVC_Handler>:
  * @brief  This function handles SVCall exception.
  * @param  None
  * @retval None
  */
void SVC_Handler(void)
{
 800035c:	b480      	push	{r7}
 800035e:	af00      	add	r7, sp, #0
}
 8000360:	bf00      	nop
 8000362:	46bd      	mov	sp, r7
 8000364:	f85d 7b04 	ldr.w	r7, [sp], #4
 8000368:	4770      	bx	lr
 800036a:	bf00      	nop

0800036c <DebugMon_Handler>:
  * @brief  This function handles Debug Monitor exception.
  * @param  None
  * @retval None
  */
void DebugMon_Handler(void)
{
 800036c:	b480      	push	{r7}
 800036e:	af00      	add	r7, sp, #0
}
 8000370:	bf00      	nop
 8000372:	46bd      	mov	sp, r7
 8000374:	f85d 7b04 	ldr.w	r7, [sp], #4
 8000378:	4770      	bx	lr
 800037a:	bf00      	nop

0800037c <PendSV_Handler>:
  * @brief  This function handles PendSVC exception.
  * @param  None
  * @retval None
  */
void PendSV_Handler(void)
{
 800037c:	b480      	push	{r7}
 800037e:	af00      	add	r7, sp, #0
}
 8000380:	bf00      	nop
 8000382:	46bd      	mov	sp, r7
 8000384:	f85d 7b04 	ldr.w	r7, [sp], #4
 8000388:	4770      	bx	lr
 800038a:	bf00      	nop

0800038c <Reset_Handler>:

    .section  .text.Reset_Handler
  .weak  Reset_Handler
  .type  Reset_Handler, %function
Reset_Handler:  
  ldr   sp, =_estack    /* Atollic update: set stack pointer */
 800038c:	f8df d034 	ldr.w	sp, [pc, #52]	; 80003c4 <LoopFillZerobss+0x14>

/* Copy the data segment initializers from flash to SRAM */  
  movs  r1, #0
 8000390:	2100      	movs	r1, #0
  b  LoopCopyDataInit
 8000392:	e003      	b.n	800039c <LoopCopyDataInit>

08000394 <CopyDataInit>:

CopyDataInit:
  ldr  r3, =_sidata
 8000394:	4b0c      	ldr	r3, [pc, #48]	; (80003c8 <LoopFillZerobss+0x18>)
  ldr  r3, [r3, r1]
 8000396:	585b      	ldr	r3, [r3, r1]
  str  r3, [r0, r1]
 8000398:	5043      	str	r3, [r0, r1]
  adds  r1, r1, #4
 800039a:	3104      	adds	r1, #4

0800039c <LoopCopyDataInit>:
    
LoopCopyDataInit:
  ldr  r0, =_sdata
 800039c:	480b      	ldr	r0, [pc, #44]	; (80003cc <LoopFillZerobss+0x1c>)
  ldr  r3, =_edata
 800039e:	4b0c      	ldr	r3, [pc, #48]	; (80003d0 <LoopFillZerobss+0x20>)
  adds  r2, r0, r1
 80003a0:	1842      	adds	r2, r0, r1
  cmp  r2, r3
 80003a2:	429a      	cmp	r2, r3
  bcc  CopyDataInit
 80003a4:	d3f6      	bcc.n	8000394 <CopyDataInit>
  ldr  r2, =_sbss
 80003a6:	4a0b      	ldr	r2, [pc, #44]	; (80003d4 <LoopFillZerobss+0x24>)
  b  LoopFillZerobss
 80003a8:	e002      	b.n	80003b0 <LoopFillZerobss>

080003aa <FillZerobss>:
/* Zero fill the bss segment. */  
FillZerobss:
  movs  r3, #0
 80003aa:	2300      	movs	r3, #0
  str  r3, [r2], #4
 80003ac:	f842 3b04 	str.w	r3, [r2], #4

080003b0 <LoopFillZerobss>:
    
LoopFillZerobss:
  ldr  r3, = _ebss
 80003b0:	4b09      	ldr	r3, [pc, #36]	; (80003d8 <LoopFillZerobss+0x28>)
  cmp  r2, r3
 80003b2:	429a      	cmp	r2, r3
  bcc  FillZerobss
 80003b4:	d3f9      	bcc.n	80003aa <FillZerobss>

/* Call the clock system intitialization function.*/
  bl  SystemInit   
 80003b6:	f7ff ff07 	bl	80001c8 <SystemInit>
/* Call static constructors */
    bl __libc_init_array
 80003ba:	f002 fd47 	bl	8002e4c <__libc_init_array>
/* Call the application's entry point.*/
  bl  main
 80003be:	f000 f869 	bl	8000494 <main>
  bx  lr    
 80003c2:	4770      	bx	lr

    .section  .text.Reset_Handler
  .weak  Reset_Handler
  .type  Reset_Handler, %function
Reset_Handler:  
  ldr   sp, =_estack    /* Atollic update: set stack pointer */
 80003c4:	20020000 	.word	0x20020000
/* Copy the data segment initializers from flash to SRAM */  
  movs  r1, #0
  b  LoopCopyDataInit

CopyDataInit:
  ldr  r3, =_sidata
 80003c8:	08002fc0 	.word	0x08002fc0
  ldr  r3, [r3, r1]
  str  r3, [r0, r1]
  adds  r1, r1, #4
    
LoopCopyDataInit:
  ldr  r0, =_sdata
 80003cc:	20000000 	.word	0x20000000
  ldr  r3, =_edata
 80003d0:	2000008c 	.word	0x2000008c
  adds  r2, r0, r1
  cmp  r2, r3
  bcc  CopyDataInit
  ldr  r2, =_sbss
 80003d4:	2000008c 	.word	0x2000008c
FillZerobss:
  movs  r3, #0
  str  r3, [r2], #4
    
LoopFillZerobss:
  ldr  r3, = _ebss
 80003d8:	20000154 	.word	0x20000154

080003dc <ADC_IRQHandler>:
 * @retval None       
*/
    .section  .text.Default_Handler,"ax",%progbits
Default_Handler:
Infinite_Loop:
  b  Infinite_Loop
 80003dc:	e7fe      	b.n	80003dc <ADC_IRQHandler>
	...

080003e0 <NVIC_SetPriority>:

    \param [in]      IRQn  Interrupt number.
    \param [in]  priority  Priority to set.
 */
__STATIC_INLINE void NVIC_SetPriority(IRQn_Type IRQn, uint32_t priority)
{
 80003e0:	b480      	push	{r7}
 80003e2:	b083      	sub	sp, #12
 80003e4:	af00      	add	r7, sp, #0
 80003e6:	4603      	mov	r3, r0
 80003e8:	6039      	str	r1, [r7, #0]
 80003ea:	71fb      	strb	r3, [r7, #7]
  if(IRQn < 0) {
 80003ec:	f997 3007 	ldrsb.w	r3, [r7, #7]
 80003f0:	2b00      	cmp	r3, #0
 80003f2:	da0b      	bge.n	800040c <NVIC_SetPriority+0x2c>
    SCB->SHP[((uint32_t)(IRQn) & 0xF)-4] = ((priority << (8 - __NVIC_PRIO_BITS)) & 0xff); } /* set Priority for Cortex-M  System Interrupts */
 80003f4:	490d      	ldr	r1, [pc, #52]	; (800042c <NVIC_SetPriority+0x4c>)
 80003f6:	79fb      	ldrb	r3, [r7, #7]
 80003f8:	f003 030f 	and.w	r3, r3, #15
 80003fc:	3b04      	subs	r3, #4
 80003fe:	683a      	ldr	r2, [r7, #0]
 8000400:	b2d2      	uxtb	r2, r2
 8000402:	0112      	lsls	r2, r2, #4
 8000404:	b2d2      	uxtb	r2, r2
 8000406:	440b      	add	r3, r1
 8000408:	761a      	strb	r2, [r3, #24]
  else {
    NVIC->IP[(uint32_t)(IRQn)] = ((priority << (8 - __NVIC_PRIO_BITS)) & 0xff);    }        /* set Priority for device specific Interrupts  */
}
 800040a:	e009      	b.n	8000420 <NVIC_SetPriority+0x40>
__STATIC_INLINE void NVIC_SetPriority(IRQn_Type IRQn, uint32_t priority)
{
  if(IRQn < 0) {
    SCB->SHP[((uint32_t)(IRQn) & 0xF)-4] = ((priority << (8 - __NVIC_PRIO_BITS)) & 0xff); } /* set Priority for Cortex-M  System Interrupts */
  else {
    NVIC->IP[(uint32_t)(IRQn)] = ((priority << (8 - __NVIC_PRIO_BITS)) & 0xff);    }        /* set Priority for device specific Interrupts  */
 800040c:	4908      	ldr	r1, [pc, #32]	; (8000430 <NVIC_SetPriority+0x50>)
 800040e:	f997 3007 	ldrsb.w	r3, [r7, #7]
 8000412:	683a      	ldr	r2, [r7, #0]
 8000414:	b2d2      	uxtb	r2, r2
 8000416:	0112      	lsls	r2, r2, #4
 8000418:	b2d2      	uxtb	r2, r2
 800041a:	440b      	add	r3, r1
 800041c:	f883 2300 	strb.w	r2, [r3, #768]	; 0x300
}
 8000420:	bf00      	nop
 8000422:	370c      	adds	r7, #12
 8000424:	46bd      	mov	sp, r7
 8000426:	f85d 7b04 	ldr.w	r7, [sp], #4
 800042a:	4770      	bx	lr
 800042c:	e000ed00 	.word	0xe000ed00
 8000430:	e000e100 	.word	0xe000e100

08000434 <SysTick_Config>:
    function <b>SysTick_Config</b> is not included. In this case, the file <b><i>device</i>.h</b>
    must contain a vendor-specific implementation of this function.

 */
__STATIC_INLINE uint32_t SysTick_Config(uint32_t ticks)
{
 8000434:	b580      	push	{r7, lr}
 8000436:	b082      	sub	sp, #8
 8000438:	af00      	add	r7, sp, #0
 800043a:	6078      	str	r0, [r7, #4]
  if (ticks > SysTick_LOAD_RELOAD_Msk)  return (1);            /* Reload value impossible */
 800043c:	687b      	ldr	r3, [r7, #4]
 800043e:	f1b3 7f80 	cmp.w	r3, #16777216	; 0x1000000
 8000442:	d301      	bcc.n	8000448 <SysTick_Config+0x14>
 8000444:	2301      	movs	r3, #1
 8000446:	e011      	b.n	800046c <SysTick_Config+0x38>

  SysTick->LOAD  = (ticks & SysTick_LOAD_RELOAD_Msk) - 1;      /* set reload register */
 8000448:	4a0a      	ldr	r2, [pc, #40]	; (8000474 <SysTick_Config+0x40>)
 800044a:	687b      	ldr	r3, [r7, #4]
 800044c:	f023 437f 	bic.w	r3, r3, #4278190080	; 0xff000000
 8000450:	3b01      	subs	r3, #1
 8000452:	6053      	str	r3, [r2, #4]
  NVIC_SetPriority (SysTick_IRQn, (1<<__NVIC_PRIO_BITS) - 1);  /* set Priority for Systick Interrupt */
 8000454:	210f      	movs	r1, #15
 8000456:	f04f 30ff 	mov.w	r0, #4294967295
 800045a:	f7ff ffc1 	bl	80003e0 <NVIC_SetPriority>
  SysTick->VAL   = 0;                                          /* Load the SysTick Counter Value */
 800045e:	4b05      	ldr	r3, [pc, #20]	; (8000474 <SysTick_Config+0x40>)
 8000460:	2200      	movs	r2, #0
 8000462:	609a      	str	r2, [r3, #8]
  SysTick->CTRL  = SysTick_CTRL_CLKSOURCE_Msk |
 8000464:	4b03      	ldr	r3, [pc, #12]	; (8000474 <SysTick_Config+0x40>)
                   SysTick_CTRL_TICKINT_Msk   |
                   SysTick_CTRL_ENABLE_Msk;                    /* Enable SysTick IRQ and SysTick Timer */
 8000466:	2207      	movs	r2, #7
 8000468:	601a      	str	r2, [r3, #0]
  return (0);                                                  /* Function successful */
 800046a:	2300      	movs	r3, #0
}
 800046c:	4618      	mov	r0, r3
 800046e:	3708      	adds	r7, #8
 8000470:	46bd      	mov	sp, r7
 8000472:	bd80      	pop	{r7, pc}
 8000474:	e000e010 	.word	0xe000e010

08000478 <_ZN3NRF7IRQ_PinEv>:
		GPIO_TypeDef* CS_GPIO 	= GPIOA,uint16_t CS_Pin  = GPIO_Pin_4,
		GPIO_TypeDef* SCK_GPIO 	= GPIOA,uint16_t SCK_Pin = GPIO_Pin_5,
		GPIO_TypeDef* MISO_GPIO = GPIOA,uint16_t MISO_Pin=GPIO_Pin_6,
		GPIO_TypeDef* MOSI_GPIO = GPIOA,uint16_t MOSI_Pin=GPIO_Pin_7);
	void begin();
	uint16_t IRQ_Pin(){return NRF_IRQ_Pin;};
 8000478:	b480      	push	{r7}
 800047a:	b083      	sub	sp, #12
 800047c:	af00      	add	r7, sp, #0
 800047e:	6078      	str	r0, [r7, #4]
 8000480:	687b      	ldr	r3, [r7, #4]
 8000482:	f8b3 30d4 	ldrh.w	r3, [r3, #212]	; 0xd4
 8000486:	4618      	mov	r0, r3
 8000488:	370c      	adds	r7, #12
 800048a:	46bd      	mov	sp, r7
 800048c:	f85d 7b04 	ldr.w	r7, [sp], #4
 8000490:	4770      	bx	lr
 8000492:	bf00      	nop

08000494 <main>:
uint8_t payload_to_print=0;//flag que sinaliza a main() que há uma payload para ser lida
uint64_t packets_sent=0;
NRF* radio_ptr=0;

int main(void)
{
 8000494:	b580      	push	{r7, lr}
 8000496:	b0c0      	sub	sp, #256	; 0x100
 8000498:	af0a      	add	r7, sp, #40	; 0x28
	SysTick_Config(SystemCoreClock/1000000);
 800049a:	4b34      	ldr	r3, [pc, #208]	; (800056c <main+0xd8>)
 800049c:	681b      	ldr	r3, [r3, #0]
 800049e:	4a34      	ldr	r2, [pc, #208]	; (8000570 <main+0xdc>)
 80004a0:	fba2 2303 	umull	r2, r3, r2, r3
 80004a4:	0c9b      	lsrs	r3, r3, #18
 80004a6:	4618      	mov	r0, r3
 80004a8:	f7ff ffc4 	bl	8000434 <SysTick_Config>
  *  See also the <system_*.c> file and how the SystemInit() function updates 
  *  SCB->VTOR register.  
  *  E.g.  SCB->VTOR = 0x20000000;  
  */

  STM_EVAL_LEDInit(LED3);
 80004ac:	2001      	movs	r0, #1
 80004ae:	f000 fa4b 	bl	8000948 <STM_EVAL_LEDInit>
  STM_EVAL_LEDInit(LED4);
 80004b2:	2000      	movs	r0, #0
 80004b4:	f000 fa48 	bl	8000948 <STM_EVAL_LEDInit>
  STM_EVAL_LEDInit(LED5);
 80004b8:	2002      	movs	r0, #2
 80004ba:	f000 fa45 	bl	8000948 <STM_EVAL_LEDInit>
  STM_EVAL_LEDInit(LED6);
 80004be:	2003      	movs	r0, #3
 80004c0:	f000 fa42 	bl	8000948 <STM_EVAL_LEDInit>

  NRF radio;//inicializa o NRF com os pinos default, deixa em POWER_UP
 80004c4:	4638      	mov	r0, r7
 80004c6:	2380      	movs	r3, #128	; 0x80
 80004c8:	9309      	str	r3, [sp, #36]	; 0x24
 80004ca:	4b2a      	ldr	r3, [pc, #168]	; (8000574 <main+0xe0>)
 80004cc:	9308      	str	r3, [sp, #32]
 80004ce:	2340      	movs	r3, #64	; 0x40
 80004d0:	9307      	str	r3, [sp, #28]
 80004d2:	4b28      	ldr	r3, [pc, #160]	; (8000574 <main+0xe0>)
 80004d4:	9306      	str	r3, [sp, #24]
 80004d6:	2320      	movs	r3, #32
 80004d8:	9305      	str	r3, [sp, #20]
 80004da:	4b26      	ldr	r3, [pc, #152]	; (8000574 <main+0xe0>)
 80004dc:	9304      	str	r3, [sp, #16]
 80004de:	2310      	movs	r3, #16
 80004e0:	9303      	str	r3, [sp, #12]
 80004e2:	4b24      	ldr	r3, [pc, #144]	; (8000574 <main+0xe0>)
 80004e4:	9302      	str	r3, [sp, #8]
 80004e6:	4b24      	ldr	r3, [pc, #144]	; (8000578 <main+0xe4>)
 80004e8:	9301      	str	r3, [sp, #4]
 80004ea:	2320      	movs	r3, #32
 80004ec:	9300      	str	r3, [sp, #0]
 80004ee:	4b23      	ldr	r3, [pc, #140]	; (800057c <main+0xe8>)
 80004f0:	2208      	movs	r2, #8
 80004f2:	4920      	ldr	r1, [pc, #128]	; (8000574 <main+0xe0>)
 80004f4:	f000 ff04 	bl	8001300 <_ZN3NRFC1EP12GPIO_TypeDeftS1_tP11SPI_TypeDefS1_tS1_tS1_tS1_t>
  radio_ptr=&radio;
 80004f8:	4a21      	ldr	r2, [pc, #132]	; (8000580 <main+0xec>)
 80004fa:	463b      	mov	r3, r7
 80004fc:	6013      	str	r3, [r2, #0]

  radio.REFRESH();//TODO remover após debug
 80004fe:	463b      	mov	r3, r7
 8000500:	4618      	mov	r0, r3
 8000502:	f000 fd11 	bl	8000f28 <_ZN16NRF_REGISTER_MAP7REFRESHEv>

  radio.TX_configure();//faz uma configuração default para o modo TX
 8000506:	463b      	mov	r3, r7
 8000508:	4618      	mov	r0, r3
 800050a:	f001 fb87 	bl	8001c1c <_ZN3NRF12TX_configureEv>
  radio.REFRESH();//TODO remover após debug
 800050e:	463b      	mov	r3, r7
 8000510:	4618      	mov	r0, r3
 8000512:	f000 fd09 	bl	8000f28 <_ZN16NRF_REGISTER_MAP7REFRESHEv>

  //inicialização do USB
  /*USBD_Init(&USB_OTG_dev, USB_OTG_FS_CORE_ID, &USR_desc, &USBD_CDC_cb, &USR_cb);*/

  Delay_s(20);
 8000516:	2014      	movs	r0, #20
 8000518:	f001 fcb2 	bl	8001e80 <_Z7Delay_sh>
  STM_EVAL_LEDOn(LED3);
 800051c:	2001      	movs	r0, #1
 800051e:	f000 fa41 	bl	80009a4 <STM_EVAL_LEDOn>
  STM_EVAL_LEDOn(LED4);
 8000522:	2000      	movs	r0, #0
 8000524:	f000 fa3e 	bl	80009a4 <STM_EVAL_LEDOn>
  STM_EVAL_LEDOn(LED5);
 8000528:	2002      	movs	r0, #2
 800052a:	f000 fa3b 	bl	80009a4 <STM_EVAL_LEDOn>
  STM_EVAL_LEDOn(LED6);
 800052e:	2003      	movs	r0, #3
 8000530:	f000 fa38 	bl	80009a4 <STM_EVAL_LEDOn>
  Delay_s(1);
 8000534:	2001      	movs	r0, #1
 8000536:	f001 fca3 	bl	8001e80 <_Z7Delay_sh>
  STM_EVAL_LEDOff(LED3);
 800053a:	2001      	movs	r0, #1
 800053c:	f000 fa4a 	bl	80009d4 <STM_EVAL_LEDOff>
  STM_EVAL_LEDOff(LED4);
 8000540:	2000      	movs	r0, #0
 8000542:	f000 fa47 	bl	80009d4 <STM_EVAL_LEDOff>
  STM_EVAL_LEDOff(LED5);
 8000546:	2002      	movs	r0, #2
 8000548:	f000 fa44 	bl	80009d4 <STM_EVAL_LEDOff>
  STM_EVAL_LEDOff(LED6);
 800054c:	2003      	movs	r0, #3
 800054e:	f000 fa41 	bl	80009d4 <STM_EVAL_LEDOff>
				if(radio_ptr->RECEIVE(ack_payload))//verifica se chegou algo na RX-fifo
					VCP_send_buffer(ack_payload,5);
#endif
*/
//				print_nRF();
				send(&radio);
 8000552:	463b      	mov	r3, r7
 8000554:	4618      	mov	r0, r3
 8000556:	f000 f913 	bl	8000780 <_Z4sendP3NRF>
				if(payload_to_print){
 800055a:	4b0a      	ldr	r3, [pc, #40]	; (8000584 <main+0xf0>)
 800055c:	781b      	ldrb	r3, [r3, #0]
 800055e:	2b00      	cmp	r3, #0
 8000560:	d0f7      	beq.n	8000552 <main+0xbe>
					//VCP_send_buffer(ack_payload,5);
					payload_to_print=0;
 8000562:	4b08      	ldr	r3, [pc, #32]	; (8000584 <main+0xf0>)
 8000564:	2200      	movs	r2, #0
 8000566:	701a      	strb	r2, [r3, #0]
  STM_EVAL_LEDOff(LED6);

//  uint8_t  ack_payload[]={0,0,0,0,0,0,0,0,0,0,0,0,0,0,0,0,0,0,0,0,0,0,0,0,0,0,0,0,0,0,0,0};
  //uint64_t packets_sent=0;
  /* Infinite loop */
  while (1)
 8000568:	e7f3      	b.n	8000552 <main+0xbe>
 800056a:	bf00      	nop
 800056c:	20000000 	.word	0x20000000
 8000570:	431bde83 	.word	0x431bde83
 8000574:	40020000 	.word	0x40020000
 8000578:	40013000 	.word	0x40013000
 800057c:	40020800 	.word	0x40020800
 8000580:	200000cc 	.word	0x200000cc
 8000584:	200000c8 	.word	0x200000c8

08000588 <EXTI9_5_IRQHandler>:
				}
  }
  return 0;
}

void EXTI9_5_IRQHandler(){
 8000588:	b590      	push	{r4, r7, lr}
 800058a:	b083      	sub	sp, #12
 800058c:	af00      	add	r7, sp, #0
	STM_EVAL_LEDOn(LED4);//VERDE: indica IRQ=low
 800058e:	2000      	movs	r0, #0
 8000590:	f000 fa08 	bl	80009a4 <STM_EVAL_LEDOn>

	uint8_t status=0;
 8000594:	2300      	movs	r3, #0
 8000596:	71fb      	strb	r3, [r7, #7]
	radio_ptr->R_REGISTER(STATUS_ADDRESS,1,&status);
 8000598:	4b19      	ldr	r3, [pc, #100]	; (8000600 <EXTI9_5_IRQHandler+0x78>)
 800059a:	681b      	ldr	r3, [r3, #0]
 800059c:	681b      	ldr	r3, [r3, #0]
 800059e:	3304      	adds	r3, #4
 80005a0:	681c      	ldr	r4, [r3, #0]
 80005a2:	4b17      	ldr	r3, [pc, #92]	; (8000600 <EXTI9_5_IRQHandler+0x78>)
 80005a4:	6818      	ldr	r0, [r3, #0]
 80005a6:	1dfb      	adds	r3, r7, #7
 80005a8:	2201      	movs	r2, #1
 80005aa:	2107      	movs	r1, #7
 80005ac:	47a0      	blx	r4
	//for (uint64_t i=0;i<0x1dc4;i++);

	if(status & RX_DR_MASK){
 80005ae:	79fb      	ldrb	r3, [r7, #7]
 80005b0:	f003 0340 	and.w	r3, r3, #64	; 0x40
 80005b4:	2b00      	cmp	r3, #0
 80005b6:	d001      	beq.n	80005bc <EXTI9_5_IRQHandler+0x34>
		RX_DR_Handler();
 80005b8:	f000 f824 	bl	8000604 <_Z13RX_DR_Handlerv>
	}

	if(status & TX_DS_MASK){
 80005bc:	79fb      	ldrb	r3, [r7, #7]
 80005be:	f003 0320 	and.w	r3, r3, #32
 80005c2:	2b00      	cmp	r3, #0
 80005c4:	d001      	beq.n	80005ca <EXTI9_5_IRQHandler+0x42>
		TX_DS_Handler();
 80005c6:	f000 f83d 	bl	8000644 <_Z13TX_DS_Handlerv>
	}
	if(status & MAX_RT_MASK){
 80005ca:	79fb      	ldrb	r3, [r7, #7]
 80005cc:	f003 0310 	and.w	r3, r3, #16
 80005d0:	2b00      	cmp	r3, #0
 80005d2:	d001      	beq.n	80005d8 <EXTI9_5_IRQHandler+0x50>
		MAX_RT_Handler();
 80005d4:	f000 f894 	bl	8000700 <_Z14MAX_RT_Handlerv>
	}

	//"limpa" a interrupção
	EXTI_ClearITPendingBit(EXTI_Line(radio_ptr->IRQ_Pin()));
 80005d8:	4b09      	ldr	r3, [pc, #36]	; (8000600 <EXTI9_5_IRQHandler+0x78>)
 80005da:	681b      	ldr	r3, [r3, #0]
 80005dc:	4618      	mov	r0, r3
 80005de:	f7ff ff4b 	bl	8000478 <_ZN3NRF7IRQ_PinEv>
 80005e2:	4603      	mov	r3, r0
 80005e4:	4618      	mov	r0, r3
 80005e6:	f001 fe97 	bl	8002318 <_Z9EXTI_Linet>
 80005ea:	4603      	mov	r3, r0
 80005ec:	4618      	mov	r0, r3
 80005ee:	f002 fa8d 	bl	8002b0c <EXTI_ClearITPendingBit>
	STM_EVAL_LEDOff(LED4);
 80005f2:	2000      	movs	r0, #0
 80005f4:	f000 f9ee 	bl	80009d4 <STM_EVAL_LEDOff>
	return;
 80005f8:	bf00      	nop
}
 80005fa:	370c      	adds	r7, #12
 80005fc:	46bd      	mov	sp, r7
 80005fe:	bd90      	pop	{r4, r7, pc}
 8000600:	200000cc 	.word	0x200000cc

08000604 <_Z13RX_DR_Handlerv>:

void RX_DR_Handler(){
 8000604:	b580      	push	{r7, lr}
 8000606:	b082      	sub	sp, #8
 8000608:	af00      	add	r7, sp, #0
	uint8_t status=0;
 800060a:	2300      	movs	r3, #0
 800060c:	71fb      	strb	r3, [r7, #7]
	uint8_t rx_fifo_not_empty=0;
 800060e:	2300      	movs	r3, #0
 8000610:	71bb      	strb	r3, [r7, #6]
	radio_ptr->stop_listen();//reseta o CE para evitar problemas durante a escrita do registrador
 8000612:	4b09      	ldr	r3, [pc, #36]	; (8000638 <_Z13RX_DR_Handlerv+0x34>)
 8000614:	681b      	ldr	r3, [r3, #0]
 8000616:	4618      	mov	r0, r3
 8000618:	f001 fa40 	bl	8001a9c <_ZN3NRF11stop_listenEv>

	//armazena o valor recebido e limpa a flag RX_DR
	radio_ptr->RECEIVE(ack_payload);
 800061c:	4b06      	ldr	r3, [pc, #24]	; (8000638 <_Z13RX_DR_Handlerv+0x34>)
 800061e:	681b      	ldr	r3, [r3, #0]
 8000620:	4906      	ldr	r1, [pc, #24]	; (800063c <_Z13RX_DR_Handlerv+0x38>)
 8000622:	4618      	mov	r0, r3
 8000624:	f001 fa46 	bl	8001ab4 <_ZN3NRF7RECEIVEEPh>
	payload_to_print=1;
 8000628:	4b05      	ldr	r3, [pc, #20]	; (8000640 <_Z13RX_DR_Handlerv+0x3c>)
 800062a:	2201      	movs	r2, #1
 800062c:	701a      	strb	r2, [r3, #0]

	//TODO:levar em conta a possibilidade de a payload ter mais de 5 bytes
	//VCP_send_buffer(ack_payload,5);

	return;
 800062e:	bf00      	nop
}
 8000630:	3708      	adds	r7, #8
 8000632:	46bd      	mov	sp, r7
 8000634:	bd80      	pop	{r7, pc}
 8000636:	bf00      	nop
 8000638:	200000cc 	.word	0x200000cc
 800063c:	200000a8 	.word	0x200000a8
 8000640:	200000c8 	.word	0x200000c8

08000644 <_Z13TX_DS_Handlerv>:

void TX_DS_Handler(){
 8000644:	b590      	push	{r4, r7, lr}
 8000646:	b087      	sub	sp, #28
 8000648:	af00      	add	r7, sp, #0
	uint8_t status=0;
 800064a:	2300      	movs	r3, #0
 800064c:	71fb      	strb	r3, [r7, #7]
	radio_ptr->stop_listen();//reseta o CE para evitar problemas durante a escrita do registrador
 800064e:	4b2b      	ldr	r3, [pc, #172]	; (80006fc <_Z13TX_DS_Handlerv+0xb8>)
 8000650:	681b      	ldr	r3, [r3, #0]
 8000652:	4618      	mov	r0, r3
 8000654:	f001 fa22 	bl	8001a9c <_ZN3NRF11stop_listenEv>
	radio_ptr->R_REGISTER(STATUS_ADDRESS,1,&status);
 8000658:	4b28      	ldr	r3, [pc, #160]	; (80006fc <_Z13TX_DS_Handlerv+0xb8>)
 800065a:	681b      	ldr	r3, [r3, #0]
 800065c:	681b      	ldr	r3, [r3, #0]
 800065e:	3304      	adds	r3, #4
 8000660:	681c      	ldr	r4, [r3, #0]
 8000662:	4b26      	ldr	r3, [pc, #152]	; (80006fc <_Z13TX_DS_Handlerv+0xb8>)
 8000664:	6818      	ldr	r0, [r3, #0]
 8000666:	1dfb      	adds	r3, r7, #7
 8000668:	2201      	movs	r2, #1
 800066a:	2107      	movs	r1, #7
 800066c:	47a0      	blx	r4
	for (uint64_t i=0;i<0x1dc4;i++);
 800066e:	f04f 0300 	mov.w	r3, #0
 8000672:	f04f 0400 	mov.w	r4, #0
 8000676:	e9c7 3404 	strd	r3, r4, [r7, #16]
 800067a:	e9d7 3404 	ldrd	r3, r4, [r7, #16]
 800067e:	f641 51c3 	movw	r1, #7619	; 0x1dc3
 8000682:	f04f 0200 	mov.w	r2, #0
 8000686:	42a2      	cmp	r2, r4
 8000688:	bf08      	it	eq
 800068a:	4299      	cmpeq	r1, r3
 800068c:	d307      	bcc.n	800069e <_Z13TX_DS_Handlerv+0x5a>
 800068e:	e9d7 3404 	ldrd	r3, r4, [r7, #16]
 8000692:	3301      	adds	r3, #1
 8000694:	f144 0400 	adc.w	r4, r4, #0
 8000698:	e9c7 3404 	strd	r3, r4, [r7, #16]
 800069c:	e7ed      	b.n	800067a <_Z13TX_DS_Handlerv+0x36>
	//if write status in the register, we'd clear any flag, we only "write" 0 in the bits we don't want to change in order to protect they from being changed
	status &= ~(RX_DR_MASK|MAX_RT_MASK);
 800069e:	79fb      	ldrb	r3, [r7, #7]
 80006a0:	f023 0350 	bic.w	r3, r3, #80	; 0x50
 80006a4:	b2db      	uxtb	r3, r3
 80006a6:	71fb      	strb	r3, [r7, #7]
	radio_ptr->W_REGISTER(STATUS_ADDRESS,1,&status);//limpa a flag TX_DS
 80006a8:	4b14      	ldr	r3, [pc, #80]	; (80006fc <_Z13TX_DS_Handlerv+0xb8>)
 80006aa:	681b      	ldr	r3, [r3, #0]
 80006ac:	681b      	ldr	r3, [r3, #0]
 80006ae:	681c      	ldr	r4, [r3, #0]
 80006b0:	4b12      	ldr	r3, [pc, #72]	; (80006fc <_Z13TX_DS_Handlerv+0xb8>)
 80006b2:	6818      	ldr	r0, [r3, #0]
 80006b4:	1dfb      	adds	r3, r7, #7
 80006b6:	2201      	movs	r2, #1
 80006b8:	2107      	movs	r1, #7
 80006ba:	47a0      	blx	r4
	for (uint64_t i=0;i<0x1dc4;i++);
 80006bc:	f04f 0300 	mov.w	r3, #0
 80006c0:	f04f 0400 	mov.w	r4, #0
 80006c4:	e9c7 3402 	strd	r3, r4, [r7, #8]
 80006c8:	e9d7 3402 	ldrd	r3, r4, [r7, #8]
 80006cc:	f641 51c3 	movw	r1, #7619	; 0x1dc3
 80006d0:	f04f 0200 	mov.w	r2, #0
 80006d4:	42a2      	cmp	r2, r4
 80006d6:	bf08      	it	eq
 80006d8:	4299      	cmpeq	r1, r3
 80006da:	d307      	bcc.n	80006ec <_Z13TX_DS_Handlerv+0xa8>
 80006dc:	e9d7 3402 	ldrd	r3, r4, [r7, #8]
 80006e0:	3301      	adds	r3, #1
 80006e2:	f144 0400 	adc.w	r4, r4, #0
 80006e6:	e9c7 3402 	strd	r3, r4, [r7, #8]
 80006ea:	e7ed      	b.n	80006c8 <_Z13TX_DS_Handlerv+0x84>

	STM_EVAL_LEDToggle(LED6);//AZUL:indicador de sucesso
 80006ec:	2003      	movs	r0, #3
 80006ee:	f000 f989 	bl	8000a04 <STM_EVAL_LEDToggle>
	return;
 80006f2:	bf00      	nop
}
 80006f4:	371c      	adds	r7, #28
 80006f6:	46bd      	mov	sp, r7
 80006f8:	bd90      	pop	{r4, r7, pc}
 80006fa:	bf00      	nop
 80006fc:	200000cc 	.word	0x200000cc

08000700 <_Z14MAX_RT_Handlerv>:

//reseta a flag MAX_RT
void MAX_RT_Handler(){
 8000700:	b590      	push	{r4, r7, lr}
 8000702:	b085      	sub	sp, #20
 8000704:	af00      	add	r7, sp, #0
	uint8_t status=0;
 8000706:	2300      	movs	r3, #0
 8000708:	71fb      	strb	r3, [r7, #7]
	radio_ptr->stop_listen();//reseta o CE para evitar problemas durante a escrita do registrador
 800070a:	4b1c      	ldr	r3, [pc, #112]	; (800077c <_Z14MAX_RT_Handlerv+0x7c>)
 800070c:	681b      	ldr	r3, [r3, #0]
 800070e:	4618      	mov	r0, r3
 8000710:	f001 f9c4 	bl	8001a9c <_ZN3NRF11stop_listenEv>
	radio_ptr->R_REGISTER(STATUS_ADDRESS,1,&status);
 8000714:	4b19      	ldr	r3, [pc, #100]	; (800077c <_Z14MAX_RT_Handlerv+0x7c>)
 8000716:	681b      	ldr	r3, [r3, #0]
 8000718:	681b      	ldr	r3, [r3, #0]
 800071a:	3304      	adds	r3, #4
 800071c:	681c      	ldr	r4, [r3, #0]
 800071e:	4b17      	ldr	r3, [pc, #92]	; (800077c <_Z14MAX_RT_Handlerv+0x7c>)
 8000720:	6818      	ldr	r0, [r3, #0]
 8000722:	1dfb      	adds	r3, r7, #7
 8000724:	2201      	movs	r2, #1
 8000726:	2107      	movs	r1, #7
 8000728:	47a0      	blx	r4
	STD_ITER_DELAY
 800072a:	2300      	movs	r3, #0
 800072c:	60fb      	str	r3, [r7, #12]
 800072e:	68fb      	ldr	r3, [r7, #12]
 8000730:	f640 62e1 	movw	r2, #3809	; 0xee1
 8000734:	4293      	cmp	r3, r2
 8000736:	dc03      	bgt.n	8000740 <_Z14MAX_RT_Handlerv+0x40>
 8000738:	68fb      	ldr	r3, [r7, #12]
 800073a:	3301      	adds	r3, #1
 800073c:	60fb      	str	r3, [r7, #12]
 800073e:	e7f6      	b.n	800072e <_Z14MAX_RT_Handlerv+0x2e>

	//if write status in the register, we'd clear any flag, we only "write" 0 in the bits we don't want to change in order to protect they from being changed
	status &= ~(RX_DR_MASK|TX_DS_MASK);
 8000740:	79fb      	ldrb	r3, [r7, #7]
 8000742:	f023 0360 	bic.w	r3, r3, #96	; 0x60
 8000746:	b2db      	uxtb	r3, r3
 8000748:	71fb      	strb	r3, [r7, #7]
	radio_ptr->W_REGISTER(STATUS_ADDRESS,1,&status);//limpa a flag MAX_RT
 800074a:	4b0c      	ldr	r3, [pc, #48]	; (800077c <_Z14MAX_RT_Handlerv+0x7c>)
 800074c:	681b      	ldr	r3, [r3, #0]
 800074e:	681b      	ldr	r3, [r3, #0]
 8000750:	681c      	ldr	r4, [r3, #0]
 8000752:	4b0a      	ldr	r3, [pc, #40]	; (800077c <_Z14MAX_RT_Handlerv+0x7c>)
 8000754:	6818      	ldr	r0, [r3, #0]
 8000756:	1dfb      	adds	r3, r7, #7
 8000758:	2201      	movs	r2, #1
 800075a:	2107      	movs	r1, #7
 800075c:	47a0      	blx	r4
	STD_ITER_DELAY
 800075e:	2300      	movs	r3, #0
 8000760:	60bb      	str	r3, [r7, #8]
 8000762:	68bb      	ldr	r3, [r7, #8]
 8000764:	f640 62e1 	movw	r2, #3809	; 0xee1
 8000768:	4293      	cmp	r3, r2
 800076a:	dc03      	bgt.n	8000774 <_Z14MAX_RT_Handlerv+0x74>
 800076c:	68bb      	ldr	r3, [r7, #8]
 800076e:	3301      	adds	r3, #1
 8000770:	60bb      	str	r3, [r7, #8]
 8000772:	e7f6      	b.n	8000762 <_Z14MAX_RT_Handlerv+0x62>
	return;
 8000774:	bf00      	nop
}
 8000776:	3714      	adds	r7, #20
 8000778:	46bd      	mov	sp, r7
 800077a:	bd90      	pop	{r4, r7, pc}
 800077c:	200000cc 	.word	0x200000cc

08000780 <_Z4sendP3NRF>:

uint8_t send(NRF* radio_ptr){
 8000780:	b580      	push	{r7, lr}
 8000782:	b084      	sub	sp, #16
 8000784:	af00      	add	r7, sp, #0
 8000786:	6078      	str	r0, [r7, #4]
	  uint8_t symbol;
	  uint8_t i;
	  uint8_t  buffer[]={'a',43,43,43,43};
 8000788:	4a0e      	ldr	r2, [pc, #56]	; (80007c4 <_Z4sendP3NRF+0x44>)
 800078a:	f107 0308 	add.w	r3, r7, #8
 800078e:	6810      	ldr	r0, [r2, #0]
 8000790:	6018      	str	r0, [r3, #0]
 8000792:	7912      	ldrb	r2, [r2, #4]
 8000794:	711a      	strb	r2, [r3, #4]

	  	//TODO REMOVER PARA VOLTAR A EXECUTAR O LOOP
		if(radio_ptr->SEND(buffer)){
 8000796:	f107 0308 	add.w	r3, r7, #8
 800079a:	2205      	movs	r2, #5
 800079c:	4619      	mov	r1, r3
 800079e:	6878      	ldr	r0, [r7, #4]
 80007a0:	f001 f948 	bl	8001a34 <_ZN3NRF4SENDEPhh>
 80007a4:	4603      	mov	r3, r0
 80007a6:	2b00      	cmp	r3, #0
 80007a8:	bf14      	ite	ne
 80007aa:	2301      	movne	r3, #1
 80007ac:	2300      	moveq	r3, #0
 80007ae:	b2db      	uxtb	r3, r3
 80007b0:	2b00      	cmp	r3, #0
 80007b2:	d001      	beq.n	80007b8 <_Z4sendP3NRF+0x38>
				return 1;//indicador de sucesso
 80007b4:	2301      	movs	r3, #1
 80007b6:	e000      	b.n	80007ba <_Z4sendP3NRF+0x3a>
		}
		else{
				return 0;//indicador de falha
 80007b8:	2300      	movs	r3, #0
						return 0;//indicador de falha
				}
			}
		}
	  }
}
 80007ba:	4618      	mov	r0, r3
 80007bc:	3710      	adds	r7, #16
 80007be:	46bd      	mov	sp, r7
 80007c0:	bd80      	pop	{r7, pc}
 80007c2:	bf00      	nop
 80007c4:	08002f60 	.word	0x08002f60

080007c8 <EVAL_AUDIO_TransferComplete_CallBack>:

/*
 * Callback used by stm32f4_discovery_audio_codec.c.
 * Refer to stm32f4_discovery_audio_codec.h for more info.
 */
extern "C" void EVAL_AUDIO_TransferComplete_CallBack(uint32_t pBuffer, uint32_t Size){
 80007c8:	b480      	push	{r7}
 80007ca:	b083      	sub	sp, #12
 80007cc:	af00      	add	r7, sp, #0
 80007ce:	6078      	str	r0, [r7, #4]
 80007d0:	6039      	str	r1, [r7, #0]
  /* TODO, implement your code here */
  return;
 80007d2:	bf00      	nop
}
 80007d4:	370c      	adds	r7, #12
 80007d6:	46bd      	mov	sp, r7
 80007d8:	f85d 7b04 	ldr.w	r7, [sp], #4
 80007dc:	4770      	bx	lr
 80007de:	bf00      	nop

080007e0 <EVAL_AUDIO_GetSampleCallBack>:

/*
 * Callback used by stm324xg_eval_audio_codec.c.
 * Refer to stm324xg_eval_audio_codec.h for more info.
 */
extern "C" uint16_t EVAL_AUDIO_GetSampleCallBack(void){
 80007e0:	b480      	push	{r7}
 80007e2:	af00      	add	r7, sp, #0
  /* TODO, implement your code here */
  return -1;
 80007e4:	f64f 73ff 	movw	r3, #65535	; 0xffff
}
 80007e8:	4618      	mov	r0, r3
 80007ea:	46bd      	mov	sp, r7
 80007ec:	f85d 7b04 	ldr.w	r7, [sp], #4
 80007f0:	4770      	bx	lr
 80007f2:	bf00      	nop

080007f4 <Audio_MAL_IRQHandler>:
  * @brief  This function handles main Media layer interrupt. 
  * @param  None
  * @retval 0 if correct communication, else wrong communication
  */
static void Audio_MAL_IRQHandler(void)
{    
 80007f4:	b580      	push	{r7, lr}
 80007f6:	af00      	add	r7, sp, #0
  uint32_t Size = AudioRemSize;
#endif /* AUDIO_MAL_MODE_NORMAL */
  
#ifdef AUDIO_MAL_DMA_IT_TC_EN
  /* Transfer complete interrupt */
  if (DMA_GetFlagStatus(AUDIO_MAL_DMA_STREAM, AUDIO_MAL_DMA_FLAG_TC) != RESET)
 80007f8:	4b37      	ldr	r3, [pc, #220]	; (80008d8 <Audio_MAL_IRQHandler+0xe4>)
 80007fa:	681a      	ldr	r2, [r3, #0]
 80007fc:	4b37      	ldr	r3, [pc, #220]	; (80008dc <Audio_MAL_IRQHandler+0xe8>)
 80007fe:	681b      	ldr	r3, [r3, #0]
 8000800:	4619      	mov	r1, r3
 8000802:	4610      	mov	r0, r2
 8000804:	f002 fa1e 	bl	8002c44 <DMA_GetFlagStatus>
 8000808:	4603      	mov	r3, r0
 800080a:	2b00      	cmp	r3, #0
 800080c:	d062      	beq.n	80008d4 <Audio_MAL_IRQHandler+0xe0>
  {         
 #ifdef AUDIO_MAL_MODE_NORMAL
    /* Check if the end of file has been reached */
    if (AudioRemSize > 0)
 800080e:	4b34      	ldr	r3, [pc, #208]	; (80008e0 <Audio_MAL_IRQHandler+0xec>)
 8000810:	681b      	ldr	r3, [r3, #0]
 8000812:	2b00      	cmp	r3, #0
 8000814:	d04a      	beq.n	80008ac <Audio_MAL_IRQHandler+0xb8>
    {      
      /* Wait the DMA Stream to be effectively disabled */
      while (DMA_GetCmdStatus(AUDIO_MAL_DMA_STREAM) != DISABLE)
 8000816:	bf00      	nop
 8000818:	4b2f      	ldr	r3, [pc, #188]	; (80008d8 <Audio_MAL_IRQHandler+0xe4>)
 800081a:	681b      	ldr	r3, [r3, #0]
 800081c:	4618      	mov	r0, r3
 800081e:	f002 f9f9 	bl	8002c14 <DMA_GetCmdStatus>
 8000822:	4603      	mov	r3, r0
 8000824:	2b00      	cmp	r3, #0
 8000826:	d1f7      	bne.n	8000818 <Audio_MAL_IRQHandler+0x24>
      {}
      
      /* Clear the Interrupt flag */
      DMA_ClearFlag(AUDIO_MAL_DMA_STREAM, AUDIO_MAL_DMA_FLAG_TC); 
 8000828:	4b2b      	ldr	r3, [pc, #172]	; (80008d8 <Audio_MAL_IRQHandler+0xe4>)
 800082a:	681a      	ldr	r2, [r3, #0]
 800082c:	4b2b      	ldr	r3, [pc, #172]	; (80008dc <Audio_MAL_IRQHandler+0xe8>)
 800082e:	681b      	ldr	r3, [r3, #0]
 8000830:	4619      	mov	r1, r3
 8000832:	4610      	mov	r0, r2
 8000834:	f002 fa42 	bl	8002cbc <DMA_ClearFlag>
           
      /* Re-Configure the buffer address and size */
      DMA_InitStructure.DMA_Memory0BaseAddr = (uint32_t) CurrentPos;
 8000838:	4b2a      	ldr	r3, [pc, #168]	; (80008e4 <Audio_MAL_IRQHandler+0xf0>)
 800083a:	681b      	ldr	r3, [r3, #0]
 800083c:	461a      	mov	r2, r3
 800083e:	4b2a      	ldr	r3, [pc, #168]	; (80008e8 <Audio_MAL_IRQHandler+0xf4>)
 8000840:	609a      	str	r2, [r3, #8]
      DMA_InitStructure.DMA_BufferSize = (uint32_t) (DMA_MAX(AudioRemSize));
 8000842:	4b27      	ldr	r3, [pc, #156]	; (80008e0 <Audio_MAL_IRQHandler+0xec>)
 8000844:	681b      	ldr	r3, [r3, #0]
 8000846:	f64f 72ff 	movw	r2, #65535	; 0xffff
 800084a:	4293      	cmp	r3, r2
 800084c:	bf28      	it	cs
 800084e:	4613      	movcs	r3, r2
 8000850:	4a25      	ldr	r2, [pc, #148]	; (80008e8 <Audio_MAL_IRQHandler+0xf4>)
 8000852:	6113      	str	r3, [r2, #16]
            
      /* Configure the DMA Stream with the new parameters */
      DMA_Init(AUDIO_MAL_DMA_STREAM, &DMA_InitStructure);
 8000854:	4b20      	ldr	r3, [pc, #128]	; (80008d8 <Audio_MAL_IRQHandler+0xe4>)
 8000856:	681b      	ldr	r3, [r3, #0]
 8000858:	4923      	ldr	r1, [pc, #140]	; (80008e8 <Audio_MAL_IRQHandler+0xf4>)
 800085a:	4618      	mov	r0, r3
 800085c:	f002 f966 	bl	8002b2c <DMA_Init>
      
      /* Enable the I2S DMA Stream*/
      DMA_Cmd(AUDIO_MAL_DMA_STREAM, ENABLE);    
 8000860:	4b1d      	ldr	r3, [pc, #116]	; (80008d8 <Audio_MAL_IRQHandler+0xe4>)
 8000862:	681b      	ldr	r3, [r3, #0]
 8000864:	2101      	movs	r1, #1
 8000866:	4618      	mov	r0, r3
 8000868:	f002 f9b8 	bl	8002bdc <DMA_Cmd>
      
      /* Update the current pointer position */
      CurrentPos += DMA_MAX(AudioRemSize);        
 800086c:	4b1d      	ldr	r3, [pc, #116]	; (80008e4 <Audio_MAL_IRQHandler+0xf0>)
 800086e:	681a      	ldr	r2, [r3, #0]
 8000870:	4b1b      	ldr	r3, [pc, #108]	; (80008e0 <Audio_MAL_IRQHandler+0xec>)
 8000872:	681b      	ldr	r3, [r3, #0]
 8000874:	f64f 71ff 	movw	r1, #65535	; 0xffff
 8000878:	428b      	cmp	r3, r1
 800087a:	bf28      	it	cs
 800087c:	460b      	movcs	r3, r1
 800087e:	005b      	lsls	r3, r3, #1
 8000880:	4413      	add	r3, r2
 8000882:	4a18      	ldr	r2, [pc, #96]	; (80008e4 <Audio_MAL_IRQHandler+0xf0>)
 8000884:	6013      	str	r3, [r2, #0]
      
      /* Update the remaining number of data to be played */
      AudioRemSize -= DMA_MAX(AudioRemSize);   
 8000886:	4b16      	ldr	r3, [pc, #88]	; (80008e0 <Audio_MAL_IRQHandler+0xec>)
 8000888:	681a      	ldr	r2, [r3, #0]
 800088a:	4b15      	ldr	r3, [pc, #84]	; (80008e0 <Audio_MAL_IRQHandler+0xec>)
 800088c:	681b      	ldr	r3, [r3, #0]
 800088e:	f64f 71ff 	movw	r1, #65535	; 0xffff
 8000892:	428b      	cmp	r3, r1
 8000894:	bf28      	it	cs
 8000896:	460b      	movcs	r3, r1
 8000898:	1ad3      	subs	r3, r2, r3
 800089a:	4a11      	ldr	r2, [pc, #68]	; (80008e0 <Audio_MAL_IRQHandler+0xec>)
 800089c:	6013      	str	r3, [r2, #0]
        /* Enable the I2S DMA Stream*/
      DMA_Cmd(AUDIO_MAL_DMA_STREAM, ENABLE); 
 800089e:	4b0e      	ldr	r3, [pc, #56]	; (80008d8 <Audio_MAL_IRQHandler+0xe4>)
 80008a0:	681b      	ldr	r3, [r3, #0]
 80008a2:	2101      	movs	r1, #1
 80008a4:	4618      	mov	r0, r3
 80008a6:	f002 f999 	bl	8002bdc <DMA_Cmd>
    /* Clear the Interrupt flag */
    DMA_ClearFlag(AUDIO_MAL_DMA_STREAM, AUDIO_MAL_DMA_FLAG_TE | AUDIO_MAL_DMA_FLAG_FE | \
                                        AUDIO_MAL_DMA_FLAG_DME);
  }  
#endif /* AUDIO_MAL_DMA_IT_TE_EN */
}
 80008aa:	e013      	b.n	80008d4 <Audio_MAL_IRQHandler+0xe0>
      DMA_Cmd(AUDIO_MAL_DMA_STREAM, ENABLE); 
    }
    else
    {
      /* Disable the I2S DMA Stream*/
      DMA_Cmd(AUDIO_MAL_DMA_STREAM, DISABLE);   
 80008ac:	4b0a      	ldr	r3, [pc, #40]	; (80008d8 <Audio_MAL_IRQHandler+0xe4>)
 80008ae:	681b      	ldr	r3, [r3, #0]
 80008b0:	2100      	movs	r1, #0
 80008b2:	4618      	mov	r0, r3
 80008b4:	f002 f992 	bl	8002bdc <DMA_Cmd>
      
      /* Clear the Interrupt flag */
      DMA_ClearFlag(AUDIO_MAL_DMA_STREAM, AUDIO_MAL_DMA_FLAG_TC);       
 80008b8:	4b07      	ldr	r3, [pc, #28]	; (80008d8 <Audio_MAL_IRQHandler+0xe4>)
 80008ba:	681a      	ldr	r2, [r3, #0]
 80008bc:	4b07      	ldr	r3, [pc, #28]	; (80008dc <Audio_MAL_IRQHandler+0xe8>)
 80008be:	681b      	ldr	r3, [r3, #0]
 80008c0:	4619      	mov	r1, r3
 80008c2:	4610      	mov	r0, r2
 80008c4:	f002 f9fa 	bl	8002cbc <DMA_ClearFlag>
      
      /* Manage the remaining file size and new address offset: This function 
      should be coded by user (its prototype is already declared in stm32f4_discovery_audio_codec.h) */  
      EVAL_AUDIO_TransferComplete_CallBack((uint32_t)CurrentPos, 0);       
 80008c8:	4b06      	ldr	r3, [pc, #24]	; (80008e4 <Audio_MAL_IRQHandler+0xf0>)
 80008ca:	681b      	ldr	r3, [r3, #0]
 80008cc:	2100      	movs	r1, #0
 80008ce:	4618      	mov	r0, r3
 80008d0:	f7ff ff7a 	bl	80007c8 <EVAL_AUDIO_TransferComplete_CallBack>
    /* Clear the Interrupt flag */
    DMA_ClearFlag(AUDIO_MAL_DMA_STREAM, AUDIO_MAL_DMA_FLAG_TE | AUDIO_MAL_DMA_FLAG_FE | \
                                        AUDIO_MAL_DMA_FLAG_DME);
  }  
#endif /* AUDIO_MAL_DMA_IT_TE_EN */
}
 80008d4:	bf00      	nop
 80008d6:	bd80      	pop	{r7, pc}
 80008d8:	2000000c 	.word	0x2000000c
 80008dc:	20000010 	.word	0x20000010
 80008e0:	20000004 	.word	0x20000004
 80008e4:	200000d4 	.word	0x200000d4
 80008e8:	20000114 	.word	0x20000114

080008ec <DMA1_Stream7_IRQHandler>:
  * @brief  This function handles main I2S interrupt. 
  * @param  None
  * @retval 0 if correct communication, else wrong communication
  */
void Audio_MAL_I2S_IRQHandler(void)
{ 
 80008ec:	b580      	push	{r7, lr}
 80008ee:	af00      	add	r7, sp, #0
  Audio_MAL_IRQHandler();
 80008f0:	f7ff ff80 	bl	80007f4 <Audio_MAL_IRQHandler>
}
 80008f4:	bf00      	nop
 80008f6:	bd80      	pop	{r7, pc}

080008f8 <DMA1_Stream0_IRQHandler>:
  * @brief  This function handles main DAC interrupt. 
  * @param  None
  * @retval 0 if correct communication, else wrong communication
  */
void Audio_MAL_DAC_IRQHandler(void)
{ 
 80008f8:	b580      	push	{r7, lr}
 80008fa:	af00      	add	r7, sp, #0
  Audio_MAL_IRQHandler();
 80008fc:	f7ff ff7a 	bl	80007f4 <Audio_MAL_IRQHandler>
}
 8000900:	bf00      	nop
 8000902:	bd80      	pop	{r7, pc}

08000904 <SPI3_IRQHandler>:
  * @brief  I2S interrupt management
  * @param  None
  * @retval None
  */
void Audio_I2S_IRQHandler(void)
{
 8000904:	b580      	push	{r7, lr}
 8000906:	af00      	add	r7, sp, #0
  /* Check on the I2S TXE flag */  
  if (SPI_I2S_GetFlagStatus(SPI3, SPI_I2S_FLAG_TXE) != RESET)
 8000908:	2102      	movs	r1, #2
 800090a:	480d      	ldr	r0, [pc, #52]	; (8000940 <SPI3_IRQHandler+0x3c>)
 800090c:	f001 ff18 	bl	8002740 <SPI_I2S_GetFlagStatus>
 8000910:	4603      	mov	r3, r0
 8000912:	2b00      	cmp	r3, #0
 8000914:	d011      	beq.n	800093a <SPI3_IRQHandler+0x36>
  { 
    if (CurrAudioInterface == AUDIO_INTERFACE_DAC)
 8000916:	4b0b      	ldr	r3, [pc, #44]	; (8000944 <SPI3_IRQHandler+0x40>)
 8000918:	681b      	ldr	r3, [r3, #0]
 800091a:	2b02      	cmp	r3, #2
 800091c:	d106      	bne.n	800092c <SPI3_IRQHandler+0x28>
    {
      /* Wirte data to the DAC interface */
      DAC_SetChannel1Data(DAC_Align_12b_L, EVAL_AUDIO_GetSampleCallBack()); 
 800091e:	f7ff ff5f 	bl	80007e0 <EVAL_AUDIO_GetSampleCallBack>
 8000922:	4603      	mov	r3, r0
 8000924:	4619      	mov	r1, r3
 8000926:	2004      	movs	r0, #4
 8000928:	f002 f9f6 	bl	8002d18 <DAC_SetChannel1Data>
    }
    
    /* Send dummy data on I2S to avoid the underrun condition */
    SPI_I2S_SendData(CODEC_I2S, EVAL_AUDIO_GetSampleCallBack()); 
 800092c:	f7ff ff58 	bl	80007e0 <EVAL_AUDIO_GetSampleCallBack>
 8000930:	4603      	mov	r3, r0
 8000932:	4619      	mov	r1, r3
 8000934:	4802      	ldr	r0, [pc, #8]	; (8000940 <SPI3_IRQHandler+0x3c>)
 8000936:	f001 fef3 	bl	8002720 <SPI_I2S_SendData>
  }
}
 800093a:	bf00      	nop
 800093c:	bd80      	pop	{r7, pc}
 800093e:	bf00      	nop
 8000940:	40003c00 	.word	0x40003c00
 8000944:	20000008 	.word	0x20000008

08000948 <STM_EVAL_LEDInit>:
  *     @arg LED5
  *     @arg LED6
  * @retval None
  */
void STM_EVAL_LEDInit(Led_TypeDef Led)
{
 8000948:	b580      	push	{r7, lr}
 800094a:	b084      	sub	sp, #16
 800094c:	af00      	add	r7, sp, #0
 800094e:	4603      	mov	r3, r0
 8000950:	71fb      	strb	r3, [r7, #7]
  GPIO_InitTypeDef  GPIO_InitStructure;
  
  /* Enable the GPIO_LED Clock */
  RCC_AHB1PeriphClockCmd(GPIO_CLK[Led], ENABLE);
 8000952:	79fb      	ldrb	r3, [r7, #7]
 8000954:	4a10      	ldr	r2, [pc, #64]	; (8000998 <STM_EVAL_LEDInit+0x50>)
 8000956:	f852 3023 	ldr.w	r3, [r2, r3, lsl #2]
 800095a:	2101      	movs	r1, #1
 800095c:	4618      	mov	r0, r3
 800095e:	f001 ff0b 	bl	8002778 <RCC_AHB1PeriphClockCmd>

  /* Configure the GPIO_LED pin */
  GPIO_InitStructure.GPIO_Pin = GPIO_PIN[Led];
 8000962:	79fb      	ldrb	r3, [r7, #7]
 8000964:	4a0d      	ldr	r2, [pc, #52]	; (800099c <STM_EVAL_LEDInit+0x54>)
 8000966:	f832 3013 	ldrh.w	r3, [r2, r3, lsl #1]
 800096a:	60bb      	str	r3, [r7, #8]
  GPIO_InitStructure.GPIO_Mode = GPIO_Mode_OUT;
 800096c:	2301      	movs	r3, #1
 800096e:	733b      	strb	r3, [r7, #12]
  GPIO_InitStructure.GPIO_OType = GPIO_OType_PP;
 8000970:	2300      	movs	r3, #0
 8000972:	73bb      	strb	r3, [r7, #14]
  GPIO_InitStructure.GPIO_PuPd = GPIO_PuPd_UP;
 8000974:	2301      	movs	r3, #1
 8000976:	73fb      	strb	r3, [r7, #15]
  GPIO_InitStructure.GPIO_Speed = GPIO_Speed_50MHz;
 8000978:	2302      	movs	r3, #2
 800097a:	737b      	strb	r3, [r7, #13]
  GPIO_Init(GPIO_PORT[Led], &GPIO_InitStructure);
 800097c:	79fb      	ldrb	r3, [r7, #7]
 800097e:	4a08      	ldr	r2, [pc, #32]	; (80009a0 <STM_EVAL_LEDInit+0x58>)
 8000980:	f852 3023 	ldr.w	r3, [r2, r3, lsl #2]
 8000984:	f107 0208 	add.w	r2, r7, #8
 8000988:	4611      	mov	r1, r2
 800098a:	4618      	mov	r0, r3
 800098c:	f001 ff54 	bl	8002838 <GPIO_Init>
}
 8000990:	bf00      	nop
 8000992:	3710      	adds	r7, #16
 8000994:	46bd      	mov	sp, r7
 8000996:	bd80      	pop	{r7, pc}
 8000998:	08002f84 	.word	0x08002f84
 800099c:	08002f7c 	.word	0x08002f7c
 80009a0:	20000014 	.word	0x20000014

080009a4 <STM_EVAL_LEDOn>:
  *     @arg LED5
  *     @arg LED6  
  * @retval None
  */
void STM_EVAL_LEDOn(Led_TypeDef Led)
{
 80009a4:	b480      	push	{r7}
 80009a6:	b083      	sub	sp, #12
 80009a8:	af00      	add	r7, sp, #0
 80009aa:	4603      	mov	r3, r0
 80009ac:	71fb      	strb	r3, [r7, #7]
  GPIO_PORT[Led]->BSRRL = GPIO_PIN[Led];
 80009ae:	79fb      	ldrb	r3, [r7, #7]
 80009b0:	4a06      	ldr	r2, [pc, #24]	; (80009cc <STM_EVAL_LEDOn+0x28>)
 80009b2:	f852 3023 	ldr.w	r3, [r2, r3, lsl #2]
 80009b6:	79fa      	ldrb	r2, [r7, #7]
 80009b8:	4905      	ldr	r1, [pc, #20]	; (80009d0 <STM_EVAL_LEDOn+0x2c>)
 80009ba:	f831 2012 	ldrh.w	r2, [r1, r2, lsl #1]
 80009be:	831a      	strh	r2, [r3, #24]
}
 80009c0:	bf00      	nop
 80009c2:	370c      	adds	r7, #12
 80009c4:	46bd      	mov	sp, r7
 80009c6:	f85d 7b04 	ldr.w	r7, [sp], #4
 80009ca:	4770      	bx	lr
 80009cc:	20000014 	.word	0x20000014
 80009d0:	08002f7c 	.word	0x08002f7c

080009d4 <STM_EVAL_LEDOff>:
  *     @arg LED5
  *     @arg LED6 
  * @retval None
  */
void STM_EVAL_LEDOff(Led_TypeDef Led)
{
 80009d4:	b480      	push	{r7}
 80009d6:	b083      	sub	sp, #12
 80009d8:	af00      	add	r7, sp, #0
 80009da:	4603      	mov	r3, r0
 80009dc:	71fb      	strb	r3, [r7, #7]
  GPIO_PORT[Led]->BSRRH = GPIO_PIN[Led];  
 80009de:	79fb      	ldrb	r3, [r7, #7]
 80009e0:	4a06      	ldr	r2, [pc, #24]	; (80009fc <STM_EVAL_LEDOff+0x28>)
 80009e2:	f852 3023 	ldr.w	r3, [r2, r3, lsl #2]
 80009e6:	79fa      	ldrb	r2, [r7, #7]
 80009e8:	4905      	ldr	r1, [pc, #20]	; (8000a00 <STM_EVAL_LEDOff+0x2c>)
 80009ea:	f831 2012 	ldrh.w	r2, [r1, r2, lsl #1]
 80009ee:	835a      	strh	r2, [r3, #26]
}
 80009f0:	bf00      	nop
 80009f2:	370c      	adds	r7, #12
 80009f4:	46bd      	mov	sp, r7
 80009f6:	f85d 7b04 	ldr.w	r7, [sp], #4
 80009fa:	4770      	bx	lr
 80009fc:	20000014 	.word	0x20000014
 8000a00:	08002f7c 	.word	0x08002f7c

08000a04 <STM_EVAL_LEDToggle>:
  *     @arg LED5
  *     @arg LED6  
  * @retval None
  */
void STM_EVAL_LEDToggle(Led_TypeDef Led)
{
 8000a04:	b480      	push	{r7}
 8000a06:	b083      	sub	sp, #12
 8000a08:	af00      	add	r7, sp, #0
 8000a0a:	4603      	mov	r3, r0
 8000a0c:	71fb      	strb	r3, [r7, #7]
  GPIO_PORT[Led]->ODR ^= GPIO_PIN[Led];
 8000a0e:	79fb      	ldrb	r3, [r7, #7]
 8000a10:	4a09      	ldr	r2, [pc, #36]	; (8000a38 <STM_EVAL_LEDToggle+0x34>)
 8000a12:	f852 3023 	ldr.w	r3, [r2, r3, lsl #2]
 8000a16:	79fa      	ldrb	r2, [r7, #7]
 8000a18:	4907      	ldr	r1, [pc, #28]	; (8000a38 <STM_EVAL_LEDToggle+0x34>)
 8000a1a:	f851 2022 	ldr.w	r2, [r1, r2, lsl #2]
 8000a1e:	6952      	ldr	r2, [r2, #20]
 8000a20:	79f9      	ldrb	r1, [r7, #7]
 8000a22:	4806      	ldr	r0, [pc, #24]	; (8000a3c <STM_EVAL_LEDToggle+0x38>)
 8000a24:	f830 1011 	ldrh.w	r1, [r0, r1, lsl #1]
 8000a28:	404a      	eors	r2, r1
 8000a2a:	615a      	str	r2, [r3, #20]
}
 8000a2c:	bf00      	nop
 8000a2e:	370c      	adds	r7, #12
 8000a30:	46bd      	mov	sp, r7
 8000a32:	f85d 7b04 	ldr.w	r7, [sp], #4
 8000a36:	4770      	bx	lr
 8000a38:	20000014 	.word	0x20000014
 8000a3c:	08002f7c 	.word	0x08002f7c

08000a40 <_ZN3SPIC1EP11SPI_TypeDefP12GPIO_TypeDeft>:
#include "stm32f4xx_gpio.h"
#include "SPI_interface.h"
#include "CONFIG.h" //para usar SPI_Clock_Cmd() e GPIO_Clock_Cmd()

//TODO: resolver a incompatibilidade de velocidades do NRF e do SPI
SPI::SPI(SPI_TypeDef* SPI,GPIO_TypeDef* CS_GPIO,uint16_t CS_Pin){
 8000a40:	b580      	push	{r7, lr}
 8000a42:	b08c      	sub	sp, #48	; 0x30
 8000a44:	af00      	add	r7, sp, #0
 8000a46:	60f8      	str	r0, [r7, #12]
 8000a48:	60b9      	str	r1, [r7, #8]
 8000a4a:	607a      	str	r2, [r7, #4]
 8000a4c:	807b      	strh	r3, [r7, #2]
	NRF_SPI 	= SPI;
 8000a4e:	68fb      	ldr	r3, [r7, #12]
 8000a50:	68ba      	ldr	r2, [r7, #8]
 8000a52:	601a      	str	r2, [r3, #0]
	NRF_CS_GPIO = CS_GPIO;
 8000a54:	68fb      	ldr	r3, [r7, #12]
 8000a56:	687a      	ldr	r2, [r7, #4]
 8000a58:	605a      	str	r2, [r3, #4]
	NRF_CS_Pin 	= CS_Pin;
 8000a5a:	68fb      	ldr	r3, [r7, #12]
 8000a5c:	887a      	ldrh	r2, [r7, #2]
 8000a5e:	811a      	strh	r2, [r3, #8]

	//CSN CLOCK ENABLE
	GPIO_Clock_Cmd(NRF_CS_GPIO, ENABLE);
 8000a60:	68fb      	ldr	r3, [r7, #12]
 8000a62:	685b      	ldr	r3, [r3, #4]
 8000a64:	2101      	movs	r1, #1
 8000a66:	4618      	mov	r0, r3
 8000a68:	f001 fa1c 	bl	8001ea4 <_Z14GPIO_Clock_CmdP12GPIO_TypeDef15FunctionalState>

	//CSN GPIO configuration
	GPIO_InitTypeDef GPIO_CSN_initstruct;
	GPIO_CSN_initstruct.GPIO_Mode = GPIO_Mode_OUT;
 8000a6c:	2301      	movs	r3, #1
 8000a6e:	f887 302c 	strb.w	r3, [r7, #44]	; 0x2c
	GPIO_CSN_initstruct.GPIO_OType = GPIO_OType_PP;
 8000a72:	2300      	movs	r3, #0
 8000a74:	f887 302e 	strb.w	r3, [r7, #46]	; 0x2e
	GPIO_CSN_initstruct.GPIO_Pin = NRF_CS_Pin;
 8000a78:	68fb      	ldr	r3, [r7, #12]
 8000a7a:	891b      	ldrh	r3, [r3, #8]
 8000a7c:	62bb      	str	r3, [r7, #40]	; 0x28
	GPIO_CSN_initstruct.GPIO_PuPd = GPIO_PuPd_NOPULL;
 8000a7e:	2300      	movs	r3, #0
 8000a80:	f887 302f 	strb.w	r3, [r7, #47]	; 0x2f
	GPIO_CSN_initstruct.GPIO_Speed = GPIO_Speed_50MHz;
 8000a84:	2302      	movs	r3, #2
 8000a86:	f887 302d 	strb.w	r3, [r7, #45]	; 0x2d
	GPIO_Init(NRF_CS_GPIO, &GPIO_CSN_initstruct);
 8000a8a:	68fb      	ldr	r3, [r7, #12]
 8000a8c:	685b      	ldr	r3, [r3, #4]
 8000a8e:	f107 0228 	add.w	r2, r7, #40	; 0x28
 8000a92:	4611      	mov	r1, r2
 8000a94:	4618      	mov	r0, r3
 8000a96:	f001 fecf 	bl	8002838 <GPIO_Init>
	GPIO_SetBits(NRF_CS_GPIO, NRF_CS_Pin);//CSN inicialization
 8000a9a:	68fb      	ldr	r3, [r7, #12]
 8000a9c:	685a      	ldr	r2, [r3, #4]
 8000a9e:	68fb      	ldr	r3, [r7, #12]
 8000aa0:	891b      	ldrh	r3, [r3, #8]
 8000aa2:	4619      	mov	r1, r3
 8000aa4:	4610      	mov	r0, r2
 8000aa6:	f001 ff55 	bl	8002954 <GPIO_SetBits>

	//SPI1 CLOCK ENABLE
	SPI_Clock_Cmd(NRF_SPI,ENABLE);
 8000aaa:	68fb      	ldr	r3, [r7, #12]
 8000aac:	681b      	ldr	r3, [r3, #0]
 8000aae:	2101      	movs	r1, #1
 8000ab0:	4618      	mov	r0, r3
 8000ab2:	f001 fa95 	bl	8001fe0 <_Z13SPI_Clock_CmdP11SPI_TypeDef15FunctionalState>
	//SPI1 CONFIG
	SPI_InitTypeDef SPI_InitStruct;										//SPI config
	SPI_InitStruct.SPI_BaudRatePrescaler = SPI_BaudRatePrescaler_256;	//SPI config
 8000ab6:	2338      	movs	r3, #56	; 0x38
 8000ab8:	843b      	strh	r3, [r7, #32]
	SPI_InitStruct.SPI_CPHA = SPI_CPHA_1Edge;							//SPI config
 8000aba:	2300      	movs	r3, #0
 8000abc:	83bb      	strh	r3, [r7, #28]
	SPI_InitStruct.SPI_CPOL = SPI_CPOL_Low;								//SPI config
 8000abe:	2300      	movs	r3, #0
 8000ac0:	837b      	strh	r3, [r7, #26]
	SPI_InitStruct.SPI_DataSize = SPI_DataSize_8b;						//SPI config
 8000ac2:	2300      	movs	r3, #0
 8000ac4:	833b      	strh	r3, [r7, #24]
	SPI_InitStruct.SPI_Direction = SPI_Direction_2Lines_FullDuplex;		//SPI config
 8000ac6:	2300      	movs	r3, #0
 8000ac8:	82bb      	strh	r3, [r7, #20]
	SPI_InitStruct.SPI_FirstBit = SPI_FirstBit_MSB;						//SPI config
 8000aca:	2300      	movs	r3, #0
 8000acc:	847b      	strh	r3, [r7, #34]	; 0x22
	SPI_InitStruct.SPI_Mode = SPI_Mode_Master;							//SPI config
 8000ace:	f44f 7382 	mov.w	r3, #260	; 0x104
 8000ad2:	82fb      	strh	r3, [r7, #22]
	SPI_InitStruct.SPI_NSS = SPI_NSS_Soft;								//SPI config
 8000ad4:	f44f 7300 	mov.w	r3, #512	; 0x200
 8000ad8:	83fb      	strh	r3, [r7, #30]
	SPI_Init(NRF_SPI, &SPI_InitStruct);									//SPI config
 8000ada:	68fb      	ldr	r3, [r7, #12]
 8000adc:	681b      	ldr	r3, [r3, #0]
 8000ade:	f107 0214 	add.w	r2, r7, #20
 8000ae2:	4611      	mov	r1, r2
 8000ae4:	4618      	mov	r0, r3
 8000ae6:	f001 fda9 	bl	800263c <SPI_Init>
	SPI_Cmd(NRF_SPI,ENABLE);											//SPI config
 8000aea:	68fb      	ldr	r3, [r7, #12]
 8000aec:	681b      	ldr	r3, [r3, #0]
 8000aee:	2101      	movs	r1, #1
 8000af0:	4618      	mov	r0, r3
 8000af2:	f001 fde7 	bl	80026c4 <SPI_Cmd>
}
 8000af6:	68fb      	ldr	r3, [r7, #12]
 8000af8:	4618      	mov	r0, r3
 8000afa:	3730      	adds	r7, #48	; 0x30
 8000afc:	46bd      	mov	sp, r7
 8000afe:	bd80      	pop	{r7, pc}

08000b00 <_ZN3SPI9ASSERT_CSEi>:

void SPI::ASSERT_CS(int STATE){
 8000b00:	b580      	push	{r7, lr}
 8000b02:	b082      	sub	sp, #8
 8000b04:	af00      	add	r7, sp, #0
 8000b06:	6078      	str	r0, [r7, #4]
 8000b08:	6039      	str	r1, [r7, #0]
	if(STATE==SET){
 8000b0a:	683b      	ldr	r3, [r7, #0]
 8000b0c:	2b01      	cmp	r3, #1
 8000b0e:	d108      	bne.n	8000b22 <_ZN3SPI9ASSERT_CSEi+0x22>
		GPIO_SetBits(NRF_CS_GPIO,NRF_CS_Pin);
 8000b10:	687b      	ldr	r3, [r7, #4]
 8000b12:	685a      	ldr	r2, [r3, #4]
 8000b14:	687b      	ldr	r3, [r7, #4]
 8000b16:	891b      	ldrh	r3, [r3, #8]
 8000b18:	4619      	mov	r1, r3
 8000b1a:	4610      	mov	r0, r2
 8000b1c:	f001 ff1a 	bl	8002954 <GPIO_SetBits>
	}else if(STATE==RESET){
		GPIO_ResetBits(NRF_CS_GPIO,NRF_CS_Pin);
	}
}
 8000b20:	e00a      	b.n	8000b38 <_ZN3SPI9ASSERT_CSEi+0x38>
}

void SPI::ASSERT_CS(int STATE){
	if(STATE==SET){
		GPIO_SetBits(NRF_CS_GPIO,NRF_CS_Pin);
	}else if(STATE==RESET){
 8000b22:	683b      	ldr	r3, [r7, #0]
 8000b24:	2b00      	cmp	r3, #0
 8000b26:	d107      	bne.n	8000b38 <_ZN3SPI9ASSERT_CSEi+0x38>
		GPIO_ResetBits(NRF_CS_GPIO,NRF_CS_Pin);
 8000b28:	687b      	ldr	r3, [r7, #4]
 8000b2a:	685a      	ldr	r2, [r3, #4]
 8000b2c:	687b      	ldr	r3, [r7, #4]
 8000b2e:	891b      	ldrh	r3, [r3, #8]
 8000b30:	4619      	mov	r1, r3
 8000b32:	4610      	mov	r0, r2
 8000b34:	f001 ff1e 	bl	8002974 <GPIO_ResetBits>
	}
}
 8000b38:	bf00      	nop
 8000b3a:	3708      	adds	r7, #8
 8000b3c:	46bd      	mov	sp, r7
 8000b3e:	bd80      	pop	{r7, pc}

08000b40 <_ZN3SPI3CMDEhhPhS0_>:
 * cmd: comando a ser enviado pela discovery (master)
 * size: número de bytes que devem ser recebidos/enviados pelo SPI
 * ptr_send: ponteiro com os size bytes a serem enviados, use NULL para somente receber
 * ptr_receive: ponteiro com os size bytes a serem recebidos, use NULL para apenas enviar
 */
int SPI::CMD(uint8_t cmd, uint8_t size,uint8_t* ptr_send,uint8_t* ptr_receive){
 8000b40:	b580      	push	{r7, lr}
 8000b42:	b086      	sub	sp, #24
 8000b44:	af00      	add	r7, sp, #0
 8000b46:	60f8      	str	r0, [r7, #12]
 8000b48:	607b      	str	r3, [r7, #4]
 8000b4a:	460b      	mov	r3, r1
 8000b4c:	72fb      	strb	r3, [r7, #11]
 8000b4e:	4613      	mov	r3, r2
 8000b50:	72bb      	strb	r3, [r7, #10]
	ASSERT_CS(RESET);
 8000b52:	2100      	movs	r1, #0
 8000b54:	68f8      	ldr	r0, [r7, #12]
 8000b56:	f7ff ffd3 	bl	8000b00 <_ZN3SPI9ASSERT_CSEi>

	//limpa o buffer de recepção
	SPI_I2S_ReceiveData(NRF_SPI);
 8000b5a:	68fb      	ldr	r3, [r7, #12]
 8000b5c:	681b      	ldr	r3, [r3, #0]
 8000b5e:	4618      	mov	r0, r3
 8000b60:	f001 fdd0 	bl	8002704 <SPI_I2S_ReceiveData>

	SPI_I2S_SendData(NRF_SPI,cmd);
 8000b64:	68fb      	ldr	r3, [r7, #12]
 8000b66:	681b      	ldr	r3, [r3, #0]
 8000b68:	7afa      	ldrb	r2, [r7, #11]
 8000b6a:	b292      	uxth	r2, r2
 8000b6c:	4611      	mov	r1, r2
 8000b6e:	4618      	mov	r0, r3
 8000b70:	f001 fdd6 	bl	8002720 <SPI_I2S_SendData>
	while(!SPI_I2S_GetFlagStatus(NRF_SPI,SPI_I2S_FLAG_TXE));
 8000b74:	68fb      	ldr	r3, [r7, #12]
 8000b76:	681b      	ldr	r3, [r3, #0]
 8000b78:	2102      	movs	r1, #2
 8000b7a:	4618      	mov	r0, r3
 8000b7c:	f001 fde0 	bl	8002740 <SPI_I2S_GetFlagStatus>
 8000b80:	4603      	mov	r3, r0
 8000b82:	2b00      	cmp	r3, #0
 8000b84:	bf0c      	ite	eq
 8000b86:	2301      	moveq	r3, #1
 8000b88:	2300      	movne	r3, #0
 8000b8a:	b2db      	uxtb	r3, r3
 8000b8c:	2b00      	cmp	r3, #0
 8000b8e:	d000      	beq.n	8000b92 <_ZN3SPI3CMDEhhPhS0_+0x52>
 8000b90:	e7f0      	b.n	8000b74 <_ZN3SPI3CMDEhhPhS0_+0x34>
	while(!SPI_I2S_GetFlagStatus(NRF_SPI,SPI_I2S_FLAG_RXNE));
 8000b92:	68fb      	ldr	r3, [r7, #12]
 8000b94:	681b      	ldr	r3, [r3, #0]
 8000b96:	2101      	movs	r1, #1
 8000b98:	4618      	mov	r0, r3
 8000b9a:	f001 fdd1 	bl	8002740 <SPI_I2S_GetFlagStatus>
 8000b9e:	4603      	mov	r3, r0
 8000ba0:	2b00      	cmp	r3, #0
 8000ba2:	bf0c      	ite	eq
 8000ba4:	2301      	moveq	r3, #1
 8000ba6:	2300      	movne	r3, #0
 8000ba8:	b2db      	uxtb	r3, r3
 8000baa:	2b00      	cmp	r3, #0
 8000bac:	d000      	beq.n	8000bb0 <_ZN3SPI3CMDEhhPhS0_+0x70>
 8000bae:	e7f0      	b.n	8000b92 <_ZN3SPI3CMDEhhPhS0_+0x52>
	uint8_t status = SPI_I2S_ReceiveData(NRF_SPI);
 8000bb0:	68fb      	ldr	r3, [r7, #12]
 8000bb2:	681b      	ldr	r3, [r3, #0]
 8000bb4:	4618      	mov	r0, r3
 8000bb6:	f001 fda5 	bl	8002704 <SPI_I2S_ReceiveData>
 8000bba:	4603      	mov	r3, r0
 8000bbc:	75fb      	strb	r3, [r7, #23]

	uint8_t trash;

	while(size--){
 8000bbe:	7abb      	ldrb	r3, [r7, #10]
 8000bc0:	1e5a      	subs	r2, r3, #1
 8000bc2:	72ba      	strb	r2, [r7, #10]
 8000bc4:	2b00      	cmp	r3, #0
 8000bc6:	bf14      	ite	ne
 8000bc8:	2301      	movne	r3, #1
 8000bca:	2300      	moveq	r3, #0
 8000bcc:	b2db      	uxtb	r3, r3
 8000bce:	2b00      	cmp	r3, #0
 8000bd0:	d04c      	beq.n	8000c6c <_ZN3SPI3CMDEhhPhS0_+0x12c>
		if(ptr_send!=0x00){
 8000bd2:	687b      	ldr	r3, [r7, #4]
 8000bd4:	2b00      	cmp	r3, #0
 8000bd6:	d00c      	beq.n	8000bf2 <_ZN3SPI3CMDEhhPhS0_+0xb2>
			SPI_I2S_SendData(NRF_SPI,*ptr_send);
 8000bd8:	68fb      	ldr	r3, [r7, #12]
 8000bda:	681a      	ldr	r2, [r3, #0]
 8000bdc:	687b      	ldr	r3, [r7, #4]
 8000bde:	781b      	ldrb	r3, [r3, #0]
 8000be0:	b29b      	uxth	r3, r3
 8000be2:	4619      	mov	r1, r3
 8000be4:	4610      	mov	r0, r2
 8000be6:	f001 fd9b 	bl	8002720 <SPI_I2S_SendData>
			ptr_send++;
 8000bea:	687b      	ldr	r3, [r7, #4]
 8000bec:	3301      	adds	r3, #1
 8000bee:	607b      	str	r3, [r7, #4]
 8000bf0:	e005      	b.n	8000bfe <_ZN3SPI3CMDEhhPhS0_+0xbe>
		}else{
			SPI_I2S_SendData(NRF_SPI,0x00);
 8000bf2:	68fb      	ldr	r3, [r7, #12]
 8000bf4:	681b      	ldr	r3, [r3, #0]
 8000bf6:	2100      	movs	r1, #0
 8000bf8:	4618      	mov	r0, r3
 8000bfa:	f001 fd91 	bl	8002720 <SPI_I2S_SendData>
		}
		while(!SPI_I2S_GetFlagStatus(NRF_SPI,SPI_I2S_FLAG_TXE));
 8000bfe:	68fb      	ldr	r3, [r7, #12]
 8000c00:	681b      	ldr	r3, [r3, #0]
 8000c02:	2102      	movs	r1, #2
 8000c04:	4618      	mov	r0, r3
 8000c06:	f001 fd9b 	bl	8002740 <SPI_I2S_GetFlagStatus>
 8000c0a:	4603      	mov	r3, r0
 8000c0c:	2b00      	cmp	r3, #0
 8000c0e:	bf0c      	ite	eq
 8000c10:	2301      	moveq	r3, #1
 8000c12:	2300      	movne	r3, #0
 8000c14:	b2db      	uxtb	r3, r3
 8000c16:	2b00      	cmp	r3, #0
 8000c18:	d000      	beq.n	8000c1c <_ZN3SPI3CMDEhhPhS0_+0xdc>
 8000c1a:	e7f0      	b.n	8000bfe <_ZN3SPI3CMDEhhPhS0_+0xbe>

		while(!SPI_I2S_GetFlagStatus(NRF_SPI,SPI_I2S_FLAG_RXNE));
 8000c1c:	68fb      	ldr	r3, [r7, #12]
 8000c1e:	681b      	ldr	r3, [r3, #0]
 8000c20:	2101      	movs	r1, #1
 8000c22:	4618      	mov	r0, r3
 8000c24:	f001 fd8c 	bl	8002740 <SPI_I2S_GetFlagStatus>
 8000c28:	4603      	mov	r3, r0
 8000c2a:	2b00      	cmp	r3, #0
 8000c2c:	bf0c      	ite	eq
 8000c2e:	2301      	moveq	r3, #1
 8000c30:	2300      	movne	r3, #0
 8000c32:	b2db      	uxtb	r3, r3
 8000c34:	2b00      	cmp	r3, #0
 8000c36:	d000      	beq.n	8000c3a <_ZN3SPI3CMDEhhPhS0_+0xfa>
 8000c38:	e7f0      	b.n	8000c1c <_ZN3SPI3CMDEhhPhS0_+0xdc>
		if(ptr_receive!=0x00){
 8000c3a:	6a3b      	ldr	r3, [r7, #32]
 8000c3c:	2b00      	cmp	r3, #0
 8000c3e:	d00f      	beq.n	8000c60 <_ZN3SPI3CMDEhhPhS0_+0x120>
			*ptr_receive = SPI_I2S_ReceiveData(NRF_SPI);
 8000c40:	68fb      	ldr	r3, [r7, #12]
 8000c42:	681b      	ldr	r3, [r3, #0]
 8000c44:	4618      	mov	r0, r3
 8000c46:	f001 fd5d 	bl	8002704 <SPI_I2S_ReceiveData>
 8000c4a:	4603      	mov	r3, r0
 8000c4c:	b2da      	uxtb	r2, r3
 8000c4e:	6a3b      	ldr	r3, [r7, #32]
 8000c50:	701a      	strb	r2, [r3, #0]
			trash = *ptr_receive;
 8000c52:	6a3b      	ldr	r3, [r7, #32]
 8000c54:	781b      	ldrb	r3, [r3, #0]
 8000c56:	75bb      	strb	r3, [r7, #22]
			ptr_receive++;
 8000c58:	6a3b      	ldr	r3, [r7, #32]
 8000c5a:	3301      	adds	r3, #1
 8000c5c:	623b      	str	r3, [r7, #32]
 8000c5e:	e7ae      	b.n	8000bbe <_ZN3SPI3CMDEhhPhS0_+0x7e>
		}else{
			SPI_I2S_ReceiveData(NRF_SPI);
 8000c60:	68fb      	ldr	r3, [r7, #12]
 8000c62:	681b      	ldr	r3, [r3, #0]
 8000c64:	4618      	mov	r0, r3
 8000c66:	f001 fd4d 	bl	8002704 <SPI_I2S_ReceiveData>
	while(!SPI_I2S_GetFlagStatus(NRF_SPI,SPI_I2S_FLAG_RXNE));
	uint8_t status = SPI_I2S_ReceiveData(NRF_SPI);

	uint8_t trash;

	while(size--){
 8000c6a:	e7a8      	b.n	8000bbe <_ZN3SPI3CMDEhhPhS0_+0x7e>
		}else{
			SPI_I2S_ReceiveData(NRF_SPI);
		}
	}

	while(!SPI_I2S_GetFlagStatus(NRF_SPI,SPI_I2S_FLAG_TXE));
 8000c6c:	68fb      	ldr	r3, [r7, #12]
 8000c6e:	681b      	ldr	r3, [r3, #0]
 8000c70:	2102      	movs	r1, #2
 8000c72:	4618      	mov	r0, r3
 8000c74:	f001 fd64 	bl	8002740 <SPI_I2S_GetFlagStatus>
 8000c78:	4603      	mov	r3, r0
 8000c7a:	2b00      	cmp	r3, #0
 8000c7c:	bf0c      	ite	eq
 8000c7e:	2301      	moveq	r3, #1
 8000c80:	2300      	movne	r3, #0
 8000c82:	b2db      	uxtb	r3, r3
 8000c84:	2b00      	cmp	r3, #0
 8000c86:	d000      	beq.n	8000c8a <_ZN3SPI3CMDEhhPhS0_+0x14a>
 8000c88:	e7f0      	b.n	8000c6c <_ZN3SPI3CMDEhhPhS0_+0x12c>
	while(SPI_I2S_GetFlagStatus(NRF_SPI,SPI_I2S_FLAG_BSY));
 8000c8a:	68fb      	ldr	r3, [r7, #12]
 8000c8c:	681b      	ldr	r3, [r3, #0]
 8000c8e:	2180      	movs	r1, #128	; 0x80
 8000c90:	4618      	mov	r0, r3
 8000c92:	f001 fd55 	bl	8002740 <SPI_I2S_GetFlagStatus>
 8000c96:	4603      	mov	r3, r0
 8000c98:	2b00      	cmp	r3, #0
 8000c9a:	bf14      	ite	ne
 8000c9c:	2301      	movne	r3, #1
 8000c9e:	2300      	moveq	r3, #0
 8000ca0:	b2db      	uxtb	r3, r3
 8000ca2:	2b00      	cmp	r3, #0
 8000ca4:	d000      	beq.n	8000ca8 <_ZN3SPI3CMDEhhPhS0_+0x168>
 8000ca6:	e7f0      	b.n	8000c8a <_ZN3SPI3CMDEhhPhS0_+0x14a>

	ASSERT_CS(SET);
 8000ca8:	2101      	movs	r1, #1
 8000caa:	68f8      	ldr	r0, [r7, #12]
 8000cac:	f7ff ff28 	bl	8000b00 <_ZN3SPI9ASSERT_CSEi>
	return status;
 8000cb0:	7dfb      	ldrb	r3, [r7, #23]
}
 8000cb2:	4618      	mov	r0, r3
 8000cb4:	3718      	adds	r7, #24
 8000cb6:	46bd      	mov	sp, r7
 8000cb8:	bd80      	pop	{r7, pc}
 8000cba:	bf00      	nop

08000cbc <_ZN3SPI10W_REGISTEREhhPh>:

//TODO: resolver a incompatibilidade de velocidades do NRF e da STM32 sem usar Delay_ms()
//escreve registrador do NRF24 via SPI
int SPI::W_REGISTER(uint8_t adress, uint8_t size,uint8_t* value){//VALUE: array com os bits do registrador SIZE: EM BYTES
 8000cbc:	b580      	push	{r7, lr}
 8000cbe:	b088      	sub	sp, #32
 8000cc0:	af02      	add	r7, sp, #8
 8000cc2:	60f8      	str	r0, [r7, #12]
 8000cc4:	607b      	str	r3, [r7, #4]
 8000cc6:	460b      	mov	r3, r1
 8000cc8:	72fb      	strb	r3, [r7, #11]
 8000cca:	4613      	mov	r3, r2
 8000ccc:	72bb      	strb	r3, [r7, #10]
	//verifica se adress é mesmo um  endereço
	if(adress > 0x1d){
 8000cce:	7afb      	ldrb	r3, [r7, #11]
 8000cd0:	2b1d      	cmp	r3, #29
 8000cd2:	d901      	bls.n	8000cd8 <_ZN3SPI10W_REGISTEREhhPh+0x1c>
		return 1;
 8000cd4:	2301      	movs	r3, #1
 8000cd6:	e00e      	b.n	8000cf6 <_ZN3SPI10W_REGISTEREhhPh+0x3a>
	}

	uint8_t wcommand = adress;
 8000cd8:	7afb      	ldrb	r3, [r7, #11]
 8000cda:	75fb      	strb	r3, [r7, #23]
	wcommand |= 32;
 8000cdc:	7dfb      	ldrb	r3, [r7, #23]
 8000cde:	f043 0320 	orr.w	r3, r3, #32
 8000ce2:	75fb      	strb	r3, [r7, #23]

	return CMD(wcommand,size,value,0x00);
 8000ce4:	7aba      	ldrb	r2, [r7, #10]
 8000ce6:	7df9      	ldrb	r1, [r7, #23]
 8000ce8:	2300      	movs	r3, #0
 8000cea:	9300      	str	r3, [sp, #0]
 8000cec:	687b      	ldr	r3, [r7, #4]
 8000cee:	68f8      	ldr	r0, [r7, #12]
 8000cf0:	f7ff ff26 	bl	8000b40 <_ZN3SPI3CMDEhhPhS0_>
 8000cf4:	4603      	mov	r3, r0
}//WORKED! but SPI seems too much fast to NRF
 8000cf6:	4618      	mov	r0, r3
 8000cf8:	3718      	adds	r7, #24
 8000cfa:	46bd      	mov	sp, r7
 8000cfc:	bd80      	pop	{r7, pc}
 8000cfe:	bf00      	nop

08000d00 <_ZN3SPI10R_REGISTEREhhPh>:

//POINTER: array com os bits do registrador SIZE: EM BYTES
int SPI::R_REGISTER(uint8_t address, uint8_t size,uint8_t* pointer){
 8000d00:	b580      	push	{r7, lr}
 8000d02:	b086      	sub	sp, #24
 8000d04:	af02      	add	r7, sp, #8
 8000d06:	60f8      	str	r0, [r7, #12]
 8000d08:	607b      	str	r3, [r7, #4]
 8000d0a:	460b      	mov	r3, r1
 8000d0c:	72fb      	strb	r3, [r7, #11]
 8000d0e:	4613      	mov	r3, r2
 8000d10:	72bb      	strb	r3, [r7, #10]
	if(address>0x1d)
 8000d12:	7afb      	ldrb	r3, [r7, #11]
 8000d14:	2b1d      	cmp	r3, #29
 8000d16:	d902      	bls.n	8000d1e <_ZN3SPI10R_REGISTEREhhPh+0x1e>
		return -1;
 8000d18:	f04f 33ff 	mov.w	r3, #4294967295
 8000d1c:	e008      	b.n	8000d30 <_ZN3SPI10R_REGISTEREhhPh+0x30>
	return CMD(address,size,0x00,pointer);
 8000d1e:	7aba      	ldrb	r2, [r7, #10]
 8000d20:	7af9      	ldrb	r1, [r7, #11]
 8000d22:	687b      	ldr	r3, [r7, #4]
 8000d24:	9300      	str	r3, [sp, #0]
 8000d26:	2300      	movs	r3, #0
 8000d28:	68f8      	ldr	r0, [r7, #12]
 8000d2a:	f7ff ff09 	bl	8000b40 <_ZN3SPI3CMDEhhPhS0_>
 8000d2e:	4603      	mov	r3, r0
}//WORKED!
 8000d30:	4618      	mov	r0, r3
 8000d32:	3710      	adds	r7, #16
 8000d34:	46bd      	mov	sp, r7
 8000d36:	bd80      	pop	{r7, pc}

08000d38 <_ZN3SPI12W_TX_PAYLOADEPhh>:
	CMD(0x61,payload_width,0x00,pointer);//comando R_RX_PLD

	return 0;
}

int SPI::W_TX_PAYLOAD(uint8_t* pointer,uint8_t number){//number: número de bytes de pointer para transmitir
 8000d38:	b580      	push	{r7, lr}
 8000d3a:	b088      	sub	sp, #32
 8000d3c:	af02      	add	r7, sp, #8
 8000d3e:	60f8      	str	r0, [r7, #12]
 8000d40:	60b9      	str	r1, [r7, #8]
 8000d42:	4613      	mov	r3, r2
 8000d44:	71fb      	strb	r3, [r7, #7]
	uint8_t command = 0xa0;
 8000d46:	23a0      	movs	r3, #160	; 0xa0
 8000d48:	75fb      	strb	r3, [r7, #23]

	return CMD(command,number,pointer,0x00);
 8000d4a:	79fa      	ldrb	r2, [r7, #7]
 8000d4c:	7df9      	ldrb	r1, [r7, #23]
 8000d4e:	2300      	movs	r3, #0
 8000d50:	9300      	str	r3, [sp, #0]
 8000d52:	68bb      	ldr	r3, [r7, #8]
 8000d54:	68f8      	ldr	r0, [r7, #12]
 8000d56:	f7ff fef3 	bl	8000b40 <_ZN3SPI3CMDEhhPhS0_>
 8000d5a:	4603      	mov	r3, r0
}
 8000d5c:	4618      	mov	r0, r3
 8000d5e:	3718      	adds	r7, #24
 8000d60:	46bd      	mov	sp, r7
 8000d62:	bd80      	pop	{r7, pc}

08000d64 <_ZN3SPI8ACTIVATEEv>:
	ASSERT_CS(SET);
	return;
}

//TODO: fix NRF_ACTIVATE
void SPI::ACTIVATE(void){//activate, para usar R_RX_PL_WID, W_ACK_PAYLOAD, W_TX_PAYLOAD_NOACK
 8000d64:	b580      	push	{r7, lr}
 8000d66:	b084      	sub	sp, #16
 8000d68:	af00      	add	r7, sp, #0
 8000d6a:	6078      	str	r0, [r7, #4]

	uint8_t status;//enquanto estiver enviando cmd para o NRF24, ele mandará o status register

	//CS é  resetado
	ASSERT_CS(RESET);
 8000d6c:	2100      	movs	r1, #0
 8000d6e:	6878      	ldr	r0, [r7, #4]
 8000d70:	f7ff fec6 	bl	8000b00 <_ZN3SPI9ASSERT_CSEi>

	SPI_I2S_ReceiveData(NRF_SPI);// limpa o lixo em spi_dr
 8000d74:	687b      	ldr	r3, [r7, #4]
 8000d76:	681b      	ldr	r3, [r3, #0]
 8000d78:	4618      	mov	r0, r3
 8000d7a:	f001 fcc3 	bl	8002704 <SPI_I2S_ReceiveData>
	SPI_I2S_SendData(NRF_SPI,0x50);//comando activate
 8000d7e:	687b      	ldr	r3, [r7, #4]
 8000d80:	681b      	ldr	r3, [r3, #0]
 8000d82:	2150      	movs	r1, #80	; 0x50
 8000d84:	4618      	mov	r0, r3
 8000d86:	f001 fccb 	bl	8002720 <SPI_I2S_SendData>

	while(!SPI_I2S_GetFlagStatus(NRF_SPI,SPI_I2S_FLAG_TXE));
 8000d8a:	687b      	ldr	r3, [r7, #4]
 8000d8c:	681b      	ldr	r3, [r3, #0]
 8000d8e:	2102      	movs	r1, #2
 8000d90:	4618      	mov	r0, r3
 8000d92:	f001 fcd5 	bl	8002740 <SPI_I2S_GetFlagStatus>
 8000d96:	4603      	mov	r3, r0
 8000d98:	2b00      	cmp	r3, #0
 8000d9a:	bf0c      	ite	eq
 8000d9c:	2301      	moveq	r3, #1
 8000d9e:	2300      	movne	r3, #0
 8000da0:	b2db      	uxtb	r3, r3
 8000da2:	2b00      	cmp	r3, #0
 8000da4:	d000      	beq.n	8000da8 <_ZN3SPI8ACTIVATEEv+0x44>
 8000da6:	e7f0      	b.n	8000d8a <_ZN3SPI8ACTIVATEEv+0x26>
	//espera enquanto não houver nada para ler
	while(!SPI_I2S_GetFlagStatus(NRF_SPI,SPI_I2S_FLAG_RXNE));
 8000da8:	687b      	ldr	r3, [r7, #4]
 8000daa:	681b      	ldr	r3, [r3, #0]
 8000dac:	2101      	movs	r1, #1
 8000dae:	4618      	mov	r0, r3
 8000db0:	f001 fcc6 	bl	8002740 <SPI_I2S_GetFlagStatus>
 8000db4:	4603      	mov	r3, r0
 8000db6:	2b00      	cmp	r3, #0
 8000db8:	bf0c      	ite	eq
 8000dba:	2301      	moveq	r3, #1
 8000dbc:	2300      	movne	r3, #0
 8000dbe:	b2db      	uxtb	r3, r3
 8000dc0:	2b00      	cmp	r3, #0
 8000dc2:	d000      	beq.n	8000dc6 <_ZN3SPI8ACTIVATEEv+0x62>
 8000dc4:	e7f0      	b.n	8000da8 <_ZN3SPI8ACTIVATEEv+0x44>

	status = SPI_I2S_ReceiveData(NRF_SPI);
 8000dc6:	687b      	ldr	r3, [r7, #4]
 8000dc8:	681b      	ldr	r3, [r3, #0]
 8000dca:	4618      	mov	r0, r3
 8000dcc:	f001 fc9a 	bl	8002704 <SPI_I2S_ReceiveData>
 8000dd0:	4603      	mov	r3, r0
 8000dd2:	73fb      	strb	r3, [r7, #15]

	SPI_I2S_SendData(NRF_SPI,0x73);//envia 0x73 para ativar os comandos
 8000dd4:	687b      	ldr	r3, [r7, #4]
 8000dd6:	681b      	ldr	r3, [r3, #0]
 8000dd8:	2173      	movs	r1, #115	; 0x73
 8000dda:	4618      	mov	r0, r3
 8000ddc:	f001 fca0 	bl	8002720 <SPI_I2S_SendData>
	while(!SPI_I2S_GetFlagStatus(NRF_SPI,SPI_I2S_FLAG_TXE));
 8000de0:	687b      	ldr	r3, [r7, #4]
 8000de2:	681b      	ldr	r3, [r3, #0]
 8000de4:	2102      	movs	r1, #2
 8000de6:	4618      	mov	r0, r3
 8000de8:	f001 fcaa 	bl	8002740 <SPI_I2S_GetFlagStatus>
 8000dec:	4603      	mov	r3, r0
 8000dee:	2b00      	cmp	r3, #0
 8000df0:	bf0c      	ite	eq
 8000df2:	2301      	moveq	r3, #1
 8000df4:	2300      	movne	r3, #0
 8000df6:	b2db      	uxtb	r3, r3
 8000df8:	2b00      	cmp	r3, #0
 8000dfa:	d000      	beq.n	8000dfe <_ZN3SPI8ACTIVATEEv+0x9a>
 8000dfc:	e7f0      	b.n	8000de0 <_ZN3SPI8ACTIVATEEv+0x7c>
	while(!SPI_I2S_GetFlagStatus(NRF_SPI,SPI_I2S_FLAG_RXNE));
 8000dfe:	687b      	ldr	r3, [r7, #4]
 8000e00:	681b      	ldr	r3, [r3, #0]
 8000e02:	2101      	movs	r1, #1
 8000e04:	4618      	mov	r0, r3
 8000e06:	f001 fc9b 	bl	8002740 <SPI_I2S_GetFlagStatus>
 8000e0a:	4603      	mov	r3, r0
 8000e0c:	2b00      	cmp	r3, #0
 8000e0e:	bf0c      	ite	eq
 8000e10:	2301      	moveq	r3, #1
 8000e12:	2300      	movne	r3, #0
 8000e14:	b2db      	uxtb	r3, r3
 8000e16:	2b00      	cmp	r3, #0
 8000e18:	d000      	beq.n	8000e1c <_ZN3SPI8ACTIVATEEv+0xb8>
 8000e1a:	e7f0      	b.n	8000dfe <_ZN3SPI8ACTIVATEEv+0x9a>
	SPI_I2S_ReceiveData(NRF_SPI);
 8000e1c:	687b      	ldr	r3, [r7, #4]
 8000e1e:	681b      	ldr	r3, [r3, #0]
 8000e20:	4618      	mov	r0, r3
 8000e22:	f001 fc6f 	bl	8002704 <SPI_I2S_ReceiveData>

	while(SPI_I2S_GetFlagStatus(NRF_SPI,SPI_I2S_FLAG_BSY));
 8000e26:	687b      	ldr	r3, [r7, #4]
 8000e28:	681b      	ldr	r3, [r3, #0]
 8000e2a:	2180      	movs	r1, #128	; 0x80
 8000e2c:	4618      	mov	r0, r3
 8000e2e:	f001 fc87 	bl	8002740 <SPI_I2S_GetFlagStatus>
 8000e32:	4603      	mov	r3, r0
 8000e34:	2b00      	cmp	r3, #0
 8000e36:	bf14      	ite	ne
 8000e38:	2301      	movne	r3, #1
 8000e3a:	2300      	moveq	r3, #0
 8000e3c:	b2db      	uxtb	r3, r3
 8000e3e:	2b00      	cmp	r3, #0
 8000e40:	d000      	beq.n	8000e44 <_ZN3SPI8ACTIVATEEv+0xe0>
 8000e42:	e7f0      	b.n	8000e26 <_ZN3SPI8ACTIVATEEv+0xc2>

	ASSERT_CS(SET);//seta o CS, fim da escrita
 8000e44:	2101      	movs	r1, #1
 8000e46:	6878      	ldr	r0, [r7, #4]
 8000e48:	f7ff fe5a 	bl	8000b00 <_ZN3SPI9ASSERT_CSEi>
	return;
 8000e4c:	bf00      	nop
}//doesn't work
 8000e4e:	3710      	adds	r7, #16
 8000e50:	46bd      	mov	sp, r7
 8000e52:	bd80      	pop	{r7, pc}

08000e54 <_ZN3SPI3NOPEv>:
	uint8_t w_ack_cmd = pipe;
	w_ack_cmd |=((0b10101)<<3);
	CMD(w_ack_cmd,number,pointer,0x00);
}

uint8_t SPI::NOP(void){
 8000e54:	b580      	push	{r7, lr}
 8000e56:	b084      	sub	sp, #16
 8000e58:	af02      	add	r7, sp, #8
 8000e5a:	6078      	str	r0, [r7, #4]
	return CMD(0xff,0,0x00,0x00);//NOP command, no data bytes, only sends back the content of STATUS register
 8000e5c:	2300      	movs	r3, #0
 8000e5e:	9300      	str	r3, [sp, #0]
 8000e60:	2300      	movs	r3, #0
 8000e62:	2200      	movs	r2, #0
 8000e64:	21ff      	movs	r1, #255	; 0xff
 8000e66:	6878      	ldr	r0, [r7, #4]
 8000e68:	f7ff fe6a 	bl	8000b40 <_ZN3SPI3CMDEhhPhS0_>
 8000e6c:	4603      	mov	r3, r0
 8000e6e:	b2db      	uxtb	r3, r3
}
 8000e70:	4618      	mov	r0, r3
 8000e72:	3708      	adds	r7, #8
 8000e74:	46bd      	mov	sp, r7
 8000e76:	bd80      	pop	{r7, pc}

08000e78 <_ZN8REGISTERC1Ev>:
 *      Author: Renan
 */
#include "stm32f4xx.h" //para incluir stdint.h
#include "REGISTER.h"

REGISTER::REGISTER(){//CONSTRUTOR, incializa o REGISTER
 8000e78:	b480      	push	{r7}
 8000e7a:	b085      	sub	sp, #20
 8000e7c:	af00      	add	r7, sp, #0
 8000e7e:	6078      	str	r0, [r7, #4]
	size = 0;
 8000e80:	687b      	ldr	r3, [r7, #4]
 8000e82:	2200      	movs	r2, #0
 8000e84:	701a      	strb	r2, [r3, #0]
	address = 0;
 8000e86:	687b      	ldr	r3, [r7, #4]
 8000e88:	2200      	movs	r2, #0
 8000e8a:	705a      	strb	r2, [r3, #1]
	uint8_t i;
	for(i=0;i<5;i++)
 8000e8c:	2300      	movs	r3, #0
 8000e8e:	73fb      	strb	r3, [r7, #15]
 8000e90:	7bfb      	ldrb	r3, [r7, #15]
 8000e92:	2b04      	cmp	r3, #4
 8000e94:	d808      	bhi.n	8000ea8 <_ZN8REGISTERC1Ev+0x30>
		content[i]=0;
 8000e96:	7bfb      	ldrb	r3, [r7, #15]
 8000e98:	687a      	ldr	r2, [r7, #4]
 8000e9a:	4413      	add	r3, r2
 8000e9c:	2200      	movs	r2, #0
 8000e9e:	709a      	strb	r2, [r3, #2]

REGISTER::REGISTER(){//CONSTRUTOR, incializa o REGISTER
	size = 0;
	address = 0;
	uint8_t i;
	for(i=0;i<5;i++)
 8000ea0:	7bfb      	ldrb	r3, [r7, #15]
 8000ea2:	3301      	adds	r3, #1
 8000ea4:	73fb      	strb	r3, [r7, #15]
 8000ea6:	e7f3      	b.n	8000e90 <_ZN8REGISTERC1Ev+0x18>
		content[i]=0;
}
 8000ea8:	687b      	ldr	r3, [r7, #4]
 8000eaa:	4618      	mov	r0, r3
 8000eac:	3714      	adds	r7, #20
 8000eae:	46bd      	mov	sp, r7
 8000eb0:	f85d 7b04 	ldr.w	r7, [sp], #4
 8000eb4:	4770      	bx	lr
 8000eb6:	bf00      	nop

08000eb8 <_ZN8REGISTER8set_sizeEh>:

void REGISTER::set_size(uint8_t _size){
 8000eb8:	b480      	push	{r7}
 8000eba:	b083      	sub	sp, #12
 8000ebc:	af00      	add	r7, sp, #0
 8000ebe:	6078      	str	r0, [r7, #4]
 8000ec0:	460b      	mov	r3, r1
 8000ec2:	70fb      	strb	r3, [r7, #3]
	size = _size;
 8000ec4:	687b      	ldr	r3, [r7, #4]
 8000ec6:	78fa      	ldrb	r2, [r7, #3]
 8000ec8:	701a      	strb	r2, [r3, #0]
}
 8000eca:	bf00      	nop
 8000ecc:	370c      	adds	r7, #12
 8000ece:	46bd      	mov	sp, r7
 8000ed0:	f85d 7b04 	ldr.w	r7, [sp], #4
 8000ed4:	4770      	bx	lr
 8000ed6:	bf00      	nop

08000ed8 <_ZN8REGISTER8get_sizeEv>:

uint8_t REGISTER::get_size(){
 8000ed8:	b480      	push	{r7}
 8000eda:	b083      	sub	sp, #12
 8000edc:	af00      	add	r7, sp, #0
 8000ede:	6078      	str	r0, [r7, #4]
	return size;
 8000ee0:	687b      	ldr	r3, [r7, #4]
 8000ee2:	781b      	ldrb	r3, [r3, #0]
}
 8000ee4:	4618      	mov	r0, r3
 8000ee6:	370c      	adds	r7, #12
 8000ee8:	46bd      	mov	sp, r7
 8000eea:	f85d 7b04 	ldr.w	r7, [sp], #4
 8000eee:	4770      	bx	lr

08000ef0 <_ZN8REGISTER11set_addressEh>:

void REGISTER::set_address(uint8_t _address){
 8000ef0:	b480      	push	{r7}
 8000ef2:	b083      	sub	sp, #12
 8000ef4:	af00      	add	r7, sp, #0
 8000ef6:	6078      	str	r0, [r7, #4]
 8000ef8:	460b      	mov	r3, r1
 8000efa:	70fb      	strb	r3, [r7, #3]
	address = _address;
 8000efc:	687b      	ldr	r3, [r7, #4]
 8000efe:	78fa      	ldrb	r2, [r7, #3]
 8000f00:	705a      	strb	r2, [r3, #1]
}
 8000f02:	bf00      	nop
 8000f04:	370c      	adds	r7, #12
 8000f06:	46bd      	mov	sp, r7
 8000f08:	f85d 7b04 	ldr.w	r7, [sp], #4
 8000f0c:	4770      	bx	lr
 8000f0e:	bf00      	nop

08000f10 <_ZN8REGISTER11get_addressEv>:

uint8_t REGISTER::get_address(){
 8000f10:	b480      	push	{r7}
 8000f12:	b083      	sub	sp, #12
 8000f14:	af00      	add	r7, sp, #0
 8000f16:	6078      	str	r0, [r7, #4]
	return address;
 8000f18:	687b      	ldr	r3, [r7, #4]
 8000f1a:	785b      	ldrb	r3, [r3, #1]
}
 8000f1c:	4618      	mov	r0, r3
 8000f1e:	370c      	adds	r7, #12
 8000f20:	46bd      	mov	sp, r7
 8000f22:	f85d 7b04 	ldr.w	r7, [sp], #4
 8000f26:	4770      	bx	lr

08000f28 <_ZN16NRF_REGISTER_MAP7REFRESHEv>:
 *      Author: Renan
 */
#include "CONFIG.h"
#include "NRF24.h"

void NRF_REGISTER_MAP::REFRESH(){
 8000f28:	b5b0      	push	{r4, r5, r7, lr}
 8000f2a:	b084      	sub	sp, #16
 8000f2c:	af00      	add	r7, sp, #0
 8000f2e:	6078      	str	r0, [r7, #4]
	uint8_t i=0;
 8000f30:	2300      	movs	r3, #0
 8000f32:	73fb      	strb	r3, [r7, #15]
	REGISTER* current_register = &(CONFIG);
 8000f34:	687b      	ldr	r3, [r7, #4]
 8000f36:	3304      	adds	r3, #4
 8000f38:	60bb      	str	r3, [r7, #8]
	for(i=0x00;i<=0x19;i++){
 8000f3a:	2300      	movs	r3, #0
 8000f3c:	73fb      	strb	r3, [r7, #15]
 8000f3e:	7bfb      	ldrb	r3, [r7, #15]
 8000f40:	2b19      	cmp	r3, #25
 8000f42:	d81c      	bhi.n	8000f7e <_ZN16NRF_REGISTER_MAP7REFRESHEv+0x56>
		R_REGISTER(current_register->get_address(), current_register->get_size(),current_register->content);
 8000f44:	687b      	ldr	r3, [r7, #4]
 8000f46:	681b      	ldr	r3, [r3, #0]
 8000f48:	3304      	adds	r3, #4
 8000f4a:	681c      	ldr	r4, [r3, #0]
 8000f4c:	68b8      	ldr	r0, [r7, #8]
 8000f4e:	f7ff ffdf 	bl	8000f10 <_ZN8REGISTER11get_addressEv>
 8000f52:	4603      	mov	r3, r0
 8000f54:	461d      	mov	r5, r3
 8000f56:	68b8      	ldr	r0, [r7, #8]
 8000f58:	f7ff ffbe 	bl	8000ed8 <_ZN8REGISTER8get_sizeEv>
 8000f5c:	4603      	mov	r3, r0
 8000f5e:	461a      	mov	r2, r3
 8000f60:	68bb      	ldr	r3, [r7, #8]
 8000f62:	3302      	adds	r3, #2
 8000f64:	4629      	mov	r1, r5
 8000f66:	6878      	ldr	r0, [r7, #4]
 8000f68:	47a0      	blx	r4
		Delay_ms(1);
 8000f6a:	2001      	movs	r0, #1
 8000f6c:	f000 ff76 	bl	8001e5c <_Z8Delay_msm>
		current_register++;
 8000f70:	68bb      	ldr	r3, [r7, #8]
 8000f72:	3307      	adds	r3, #7
 8000f74:	60bb      	str	r3, [r7, #8]
#include "NRF24.h"

void NRF_REGISTER_MAP::REFRESH(){
	uint8_t i=0;
	REGISTER* current_register = &(CONFIG);
	for(i=0x00;i<=0x19;i++){
 8000f76:	7bfb      	ldrb	r3, [r7, #15]
 8000f78:	3301      	adds	r3, #1
 8000f7a:	73fb      	strb	r3, [r7, #15]
 8000f7c:	e7df      	b.n	8000f3e <_ZN16NRF_REGISTER_MAP7REFRESHEv+0x16>
		R_REGISTER(current_register->get_address(), current_register->get_size(),current_register->content);
		Delay_ms(1);
		current_register++;
	}
	return;
 8000f7e:	bf00      	nop
}//WORKED!
 8000f80:	3710      	adds	r7, #16
 8000f82:	46bd      	mov	sp, r7
 8000f84:	bdb0      	pop	{r4, r5, r7, pc}
 8000f86:	bf00      	nop

08000f88 <_ZN16NRF_REGISTER_MAPC1Ev>:

//inicializa objeto da classe NRF_REGISTERS, põe os valores de address e size, coloca os valores de RESET dos registradores
NRF_REGISTER_MAP::NRF_REGISTER_MAP(){
 8000f88:	b580      	push	{r7, lr}
 8000f8a:	b084      	sub	sp, #16
 8000f8c:	af00      	add	r7, sp, #0
 8000f8e:	6078      	str	r0, [r7, #4]
 8000f90:	4aaf      	ldr	r2, [pc, #700]	; (8001250 <_ZN16NRF_REGISTER_MAPC1Ev+0x2c8>)
 8000f92:	687b      	ldr	r3, [r7, #4]
 8000f94:	601a      	str	r2, [r3, #0]
 8000f96:	687b      	ldr	r3, [r7, #4]
 8000f98:	3304      	adds	r3, #4
 8000f9a:	4618      	mov	r0, r3
 8000f9c:	f7ff ff6c 	bl	8000e78 <_ZN8REGISTERC1Ev>
 8000fa0:	687b      	ldr	r3, [r7, #4]
 8000fa2:	330b      	adds	r3, #11
 8000fa4:	4618      	mov	r0, r3
 8000fa6:	f7ff ff67 	bl	8000e78 <_ZN8REGISTERC1Ev>
 8000faa:	687b      	ldr	r3, [r7, #4]
 8000fac:	3312      	adds	r3, #18
 8000fae:	4618      	mov	r0, r3
 8000fb0:	f7ff ff62 	bl	8000e78 <_ZN8REGISTERC1Ev>
 8000fb4:	687b      	ldr	r3, [r7, #4]
 8000fb6:	3319      	adds	r3, #25
 8000fb8:	4618      	mov	r0, r3
 8000fba:	f7ff ff5d 	bl	8000e78 <_ZN8REGISTERC1Ev>
 8000fbe:	687b      	ldr	r3, [r7, #4]
 8000fc0:	3320      	adds	r3, #32
 8000fc2:	4618      	mov	r0, r3
 8000fc4:	f7ff ff58 	bl	8000e78 <_ZN8REGISTERC1Ev>
 8000fc8:	687b      	ldr	r3, [r7, #4]
 8000fca:	3327      	adds	r3, #39	; 0x27
 8000fcc:	4618      	mov	r0, r3
 8000fce:	f7ff ff53 	bl	8000e78 <_ZN8REGISTERC1Ev>
 8000fd2:	687b      	ldr	r3, [r7, #4]
 8000fd4:	332e      	adds	r3, #46	; 0x2e
 8000fd6:	4618      	mov	r0, r3
 8000fd8:	f7ff ff4e 	bl	8000e78 <_ZN8REGISTERC1Ev>
 8000fdc:	687b      	ldr	r3, [r7, #4]
 8000fde:	3335      	adds	r3, #53	; 0x35
 8000fe0:	4618      	mov	r0, r3
 8000fe2:	f7ff ff49 	bl	8000e78 <_ZN8REGISTERC1Ev>
 8000fe6:	687b      	ldr	r3, [r7, #4]
 8000fe8:	333c      	adds	r3, #60	; 0x3c
 8000fea:	4618      	mov	r0, r3
 8000fec:	f7ff ff44 	bl	8000e78 <_ZN8REGISTERC1Ev>
 8000ff0:	687b      	ldr	r3, [r7, #4]
 8000ff2:	3343      	adds	r3, #67	; 0x43
 8000ff4:	4618      	mov	r0, r3
 8000ff6:	f7ff ff3f 	bl	8000e78 <_ZN8REGISTERC1Ev>
 8000ffa:	687b      	ldr	r3, [r7, #4]
 8000ffc:	334a      	adds	r3, #74	; 0x4a
 8000ffe:	4618      	mov	r0, r3
 8001000:	f7ff ff3a 	bl	8000e78 <_ZN8REGISTERC1Ev>
 8001004:	687b      	ldr	r3, [r7, #4]
 8001006:	3351      	adds	r3, #81	; 0x51
 8001008:	4618      	mov	r0, r3
 800100a:	f7ff ff35 	bl	8000e78 <_ZN8REGISTERC1Ev>
 800100e:	687b      	ldr	r3, [r7, #4]
 8001010:	3358      	adds	r3, #88	; 0x58
 8001012:	4618      	mov	r0, r3
 8001014:	f7ff ff30 	bl	8000e78 <_ZN8REGISTERC1Ev>
 8001018:	687b      	ldr	r3, [r7, #4]
 800101a:	335f      	adds	r3, #95	; 0x5f
 800101c:	4618      	mov	r0, r3
 800101e:	f7ff ff2b 	bl	8000e78 <_ZN8REGISTERC1Ev>
 8001022:	687b      	ldr	r3, [r7, #4]
 8001024:	3366      	adds	r3, #102	; 0x66
 8001026:	4618      	mov	r0, r3
 8001028:	f7ff ff26 	bl	8000e78 <_ZN8REGISTERC1Ev>
 800102c:	687b      	ldr	r3, [r7, #4]
 800102e:	336d      	adds	r3, #109	; 0x6d
 8001030:	4618      	mov	r0, r3
 8001032:	f7ff ff21 	bl	8000e78 <_ZN8REGISTERC1Ev>
 8001036:	687b      	ldr	r3, [r7, #4]
 8001038:	3374      	adds	r3, #116	; 0x74
 800103a:	4618      	mov	r0, r3
 800103c:	f7ff ff1c 	bl	8000e78 <_ZN8REGISTERC1Ev>
 8001040:	687b      	ldr	r3, [r7, #4]
 8001042:	337b      	adds	r3, #123	; 0x7b
 8001044:	4618      	mov	r0, r3
 8001046:	f7ff ff17 	bl	8000e78 <_ZN8REGISTERC1Ev>
 800104a:	687b      	ldr	r3, [r7, #4]
 800104c:	3382      	adds	r3, #130	; 0x82
 800104e:	4618      	mov	r0, r3
 8001050:	f7ff ff12 	bl	8000e78 <_ZN8REGISTERC1Ev>
 8001054:	687b      	ldr	r3, [r7, #4]
 8001056:	3389      	adds	r3, #137	; 0x89
 8001058:	4618      	mov	r0, r3
 800105a:	f7ff ff0d 	bl	8000e78 <_ZN8REGISTERC1Ev>
 800105e:	687b      	ldr	r3, [r7, #4]
 8001060:	3390      	adds	r3, #144	; 0x90
 8001062:	4618      	mov	r0, r3
 8001064:	f7ff ff08 	bl	8000e78 <_ZN8REGISTERC1Ev>
 8001068:	687b      	ldr	r3, [r7, #4]
 800106a:	3397      	adds	r3, #151	; 0x97
 800106c:	4618      	mov	r0, r3
 800106e:	f7ff ff03 	bl	8000e78 <_ZN8REGISTERC1Ev>
 8001072:	687b      	ldr	r3, [r7, #4]
 8001074:	339e      	adds	r3, #158	; 0x9e
 8001076:	4618      	mov	r0, r3
 8001078:	f7ff fefe 	bl	8000e78 <_ZN8REGISTERC1Ev>
 800107c:	687b      	ldr	r3, [r7, #4]
 800107e:	33a5      	adds	r3, #165	; 0xa5
 8001080:	4618      	mov	r0, r3
 8001082:	f7ff fef9 	bl	8000e78 <_ZN8REGISTERC1Ev>
 8001086:	687b      	ldr	r3, [r7, #4]
 8001088:	33ac      	adds	r3, #172	; 0xac
 800108a:	4618      	mov	r0, r3
 800108c:	f7ff fef4 	bl	8000e78 <_ZN8REGISTERC1Ev>
 8001090:	687b      	ldr	r3, [r7, #4]
 8001092:	33b3      	adds	r3, #179	; 0xb3
 8001094:	4618      	mov	r0, r3
 8001096:	f7ff feef 	bl	8000e78 <_ZN8REGISTERC1Ev>
	REGISTER* tmp_pointer = &CONFIG;//percorre os registradores do objeto NRF_REGISTERS
 800109a:	687b      	ldr	r3, [r7, #4]
 800109c:	3304      	adds	r3, #4
 800109e:	60fb      	str	r3, [r7, #12]

	//inicializa os campos address
	uint8_t i=0;
 80010a0:	2300      	movs	r3, #0
 80010a2:	72fb      	strb	r3, [r7, #11]
	for(i=0x00;i<=0x17;i++){
 80010a4:	2300      	movs	r3, #0
 80010a6:	72fb      	strb	r3, [r7, #11]
 80010a8:	7afb      	ldrb	r3, [r7, #11]
 80010aa:	2b17      	cmp	r3, #23
 80010ac:	d80b      	bhi.n	80010c6 <_ZN16NRF_REGISTER_MAPC1Ev+0x13e>
		tmp_pointer->set_address(i);
 80010ae:	7afb      	ldrb	r3, [r7, #11]
 80010b0:	4619      	mov	r1, r3
 80010b2:	68f8      	ldr	r0, [r7, #12]
 80010b4:	f7ff ff1c 	bl	8000ef0 <_ZN8REGISTER11set_addressEh>
		tmp_pointer++;
 80010b8:	68fb      	ldr	r3, [r7, #12]
 80010ba:	3307      	adds	r3, #7
 80010bc:	60fb      	str	r3, [r7, #12]
NRF_REGISTER_MAP::NRF_REGISTER_MAP(){
	REGISTER* tmp_pointer = &CONFIG;//percorre os registradores do objeto NRF_REGISTERS

	//inicializa os campos address
	uint8_t i=0;
	for(i=0x00;i<=0x17;i++){
 80010be:	7afb      	ldrb	r3, [r7, #11]
 80010c0:	3301      	adds	r3, #1
 80010c2:	72fb      	strb	r3, [r7, #11]
 80010c4:	e7f0      	b.n	80010a8 <_ZN16NRF_REGISTER_MAPC1Ev+0x120>
		tmp_pointer->set_address(i);
		tmp_pointer++;
	}
	for(i=0x1c;i<=0x1d;i++){
 80010c6:	231c      	movs	r3, #28
 80010c8:	72fb      	strb	r3, [r7, #11]
 80010ca:	7afb      	ldrb	r3, [r7, #11]
 80010cc:	2b1d      	cmp	r3, #29
 80010ce:	d80b      	bhi.n	80010e8 <_ZN16NRF_REGISTER_MAPC1Ev+0x160>
		tmp_pointer->set_address(i);
 80010d0:	7afb      	ldrb	r3, [r7, #11]
 80010d2:	4619      	mov	r1, r3
 80010d4:	68f8      	ldr	r0, [r7, #12]
 80010d6:	f7ff ff0b 	bl	8000ef0 <_ZN8REGISTER11set_addressEh>
		tmp_pointer++;
 80010da:	68fb      	ldr	r3, [r7, #12]
 80010dc:	3307      	adds	r3, #7
 80010de:	60fb      	str	r3, [r7, #12]
	uint8_t i=0;
	for(i=0x00;i<=0x17;i++){
		tmp_pointer->set_address(i);
		tmp_pointer++;
	}
	for(i=0x1c;i<=0x1d;i++){
 80010e0:	7afb      	ldrb	r3, [r7, #11]
 80010e2:	3301      	adds	r3, #1
 80010e4:	72fb      	strb	r3, [r7, #11]
 80010e6:	e7f0      	b.n	80010ca <_ZN16NRF_REGISTER_MAPC1Ev+0x142>
		tmp_pointer->set_address(i);
		tmp_pointer++;
	}//terminou de inicializar os campos de address

	tmp_pointer = &CONFIG;// tmp_pointer tem de percorrer os registradores 3 vezes
 80010e8:	687b      	ldr	r3, [r7, #4]
 80010ea:	3304      	adds	r3, #4
 80010ec:	60fb      	str	r3, [r7, #12]
	//inicializa os campos size
	for(i=0x00;i<=0x09;i++){
 80010ee:	2300      	movs	r3, #0
 80010f0:	72fb      	strb	r3, [r7, #11]
 80010f2:	7afb      	ldrb	r3, [r7, #11]
 80010f4:	2b09      	cmp	r3, #9
 80010f6:	d80a      	bhi.n	800110e <_ZN16NRF_REGISTER_MAPC1Ev+0x186>
		tmp_pointer->set_size(1);
 80010f8:	2101      	movs	r1, #1
 80010fa:	68f8      	ldr	r0, [r7, #12]
 80010fc:	f7ff fedc 	bl	8000eb8 <_ZN8REGISTER8set_sizeEh>
		tmp_pointer++;
 8001100:	68fb      	ldr	r3, [r7, #12]
 8001102:	3307      	adds	r3, #7
 8001104:	60fb      	str	r3, [r7, #12]
		tmp_pointer++;
	}//terminou de inicializar os campos de address

	tmp_pointer = &CONFIG;// tmp_pointer tem de percorrer os registradores 3 vezes
	//inicializa os campos size
	for(i=0x00;i<=0x09;i++){
 8001106:	7afb      	ldrb	r3, [r7, #11]
 8001108:	3301      	adds	r3, #1
 800110a:	72fb      	strb	r3, [r7, #11]
 800110c:	e7f1      	b.n	80010f2 <_ZN16NRF_REGISTER_MAPC1Ev+0x16a>
		tmp_pointer->set_size(1);
		tmp_pointer++;
	}
	for(i=0x0a;i<=0x0b;i++){
 800110e:	230a      	movs	r3, #10
 8001110:	72fb      	strb	r3, [r7, #11]
 8001112:	7afb      	ldrb	r3, [r7, #11]
 8001114:	2b0b      	cmp	r3, #11
 8001116:	d80a      	bhi.n	800112e <_ZN16NRF_REGISTER_MAPC1Ev+0x1a6>
		tmp_pointer->set_size(5);
 8001118:	2105      	movs	r1, #5
 800111a:	68f8      	ldr	r0, [r7, #12]
 800111c:	f7ff fecc 	bl	8000eb8 <_ZN8REGISTER8set_sizeEh>
		tmp_pointer++;
 8001120:	68fb      	ldr	r3, [r7, #12]
 8001122:	3307      	adds	r3, #7
 8001124:	60fb      	str	r3, [r7, #12]
	//inicializa os campos size
	for(i=0x00;i<=0x09;i++){
		tmp_pointer->set_size(1);
		tmp_pointer++;
	}
	for(i=0x0a;i<=0x0b;i++){
 8001126:	7afb      	ldrb	r3, [r7, #11]
 8001128:	3301      	adds	r3, #1
 800112a:	72fb      	strb	r3, [r7, #11]
 800112c:	e7f1      	b.n	8001112 <_ZN16NRF_REGISTER_MAPC1Ev+0x18a>
		tmp_pointer->set_size(5);
		tmp_pointer++;
	}
	for(i=0x0c;i<=0x0f;i++){
 800112e:	230c      	movs	r3, #12
 8001130:	72fb      	strb	r3, [r7, #11]
 8001132:	7afb      	ldrb	r3, [r7, #11]
 8001134:	2b0f      	cmp	r3, #15
 8001136:	d80a      	bhi.n	800114e <_ZN16NRF_REGISTER_MAPC1Ev+0x1c6>
		tmp_pointer->set_size(1);
 8001138:	2101      	movs	r1, #1
 800113a:	68f8      	ldr	r0, [r7, #12]
 800113c:	f7ff febc 	bl	8000eb8 <_ZN8REGISTER8set_sizeEh>
		tmp_pointer++;
 8001140:	68fb      	ldr	r3, [r7, #12]
 8001142:	3307      	adds	r3, #7
 8001144:	60fb      	str	r3, [r7, #12]
	}
	for(i=0x0a;i<=0x0b;i++){
		tmp_pointer->set_size(5);
		tmp_pointer++;
	}
	for(i=0x0c;i<=0x0f;i++){
 8001146:	7afb      	ldrb	r3, [r7, #11]
 8001148:	3301      	adds	r3, #1
 800114a:	72fb      	strb	r3, [r7, #11]
 800114c:	e7f1      	b.n	8001132 <_ZN16NRF_REGISTER_MAPC1Ev+0x1aa>
		tmp_pointer->set_size(1);
		tmp_pointer++;
	}
	for(i=0x10;i<=0x10;i++){
 800114e:	2310      	movs	r3, #16
 8001150:	72fb      	strb	r3, [r7, #11]
 8001152:	7afb      	ldrb	r3, [r7, #11]
 8001154:	2b10      	cmp	r3, #16
 8001156:	d80a      	bhi.n	800116e <_ZN16NRF_REGISTER_MAPC1Ev+0x1e6>
		tmp_pointer->set_size(5);
 8001158:	2105      	movs	r1, #5
 800115a:	68f8      	ldr	r0, [r7, #12]
 800115c:	f7ff feac 	bl	8000eb8 <_ZN8REGISTER8set_sizeEh>
		tmp_pointer++;
 8001160:	68fb      	ldr	r3, [r7, #12]
 8001162:	3307      	adds	r3, #7
 8001164:	60fb      	str	r3, [r7, #12]
	}
	for(i=0x0c;i<=0x0f;i++){
		tmp_pointer->set_size(1);
		tmp_pointer++;
	}
	for(i=0x10;i<=0x10;i++){
 8001166:	7afb      	ldrb	r3, [r7, #11]
 8001168:	3301      	adds	r3, #1
 800116a:	72fb      	strb	r3, [r7, #11]
 800116c:	e7f1      	b.n	8001152 <_ZN16NRF_REGISTER_MAPC1Ev+0x1ca>
		tmp_pointer->set_size(5);
		tmp_pointer++;
	}
	for(i=0x11;i<=0x19;i++){
 800116e:	2311      	movs	r3, #17
 8001170:	72fb      	strb	r3, [r7, #11]
 8001172:	7afb      	ldrb	r3, [r7, #11]
 8001174:	2b19      	cmp	r3, #25
 8001176:	d80a      	bhi.n	800118e <_ZN16NRF_REGISTER_MAPC1Ev+0x206>
		tmp_pointer->set_size(1);
 8001178:	2101      	movs	r1, #1
 800117a:	68f8      	ldr	r0, [r7, #12]
 800117c:	f7ff fe9c 	bl	8000eb8 <_ZN8REGISTER8set_sizeEh>
		tmp_pointer++;
 8001180:	68fb      	ldr	r3, [r7, #12]
 8001182:	3307      	adds	r3, #7
 8001184:	60fb      	str	r3, [r7, #12]
	}
	for(i=0x10;i<=0x10;i++){
		tmp_pointer->set_size(5);
		tmp_pointer++;
	}
	for(i=0x11;i<=0x19;i++){
 8001186:	7afb      	ldrb	r3, [r7, #11]
 8001188:	3301      	adds	r3, #1
 800118a:	72fb      	strb	r3, [r7, #11]
 800118c:	e7f1      	b.n	8001172 <_ZN16NRF_REGISTER_MAPC1Ev+0x1ea>
		tmp_pointer->set_size(1);
		tmp_pointer++;
	}//terminou de inicializar os campos de size

	//inicializa os campos content
	(CONFIG).content[0] = 0b1000;
 800118e:	687b      	ldr	r3, [r7, #4]
 8001190:	2208      	movs	r2, #8
 8001192:	719a      	strb	r2, [r3, #6]
	(EN_AA).content[0] = 0b111111;
 8001194:	687b      	ldr	r3, [r7, #4]
 8001196:	223f      	movs	r2, #63	; 0x3f
 8001198:	735a      	strb	r2, [r3, #13]
	(EN_RXADDR).content[0] = 0b11;
 800119a:	687b      	ldr	r3, [r7, #4]
 800119c:	2203      	movs	r2, #3
 800119e:	751a      	strb	r2, [r3, #20]
	(SETUP_AW).content[0] = 0b11;
 80011a0:	687b      	ldr	r3, [r7, #4]
 80011a2:	2203      	movs	r2, #3
 80011a4:	76da      	strb	r2, [r3, #27]
	(SETUP_RETR).content[0] = 0b11;
 80011a6:	687b      	ldr	r3, [r7, #4]
 80011a8:	2203      	movs	r2, #3
 80011aa:	f883 2022 	strb.w	r2, [r3, #34]	; 0x22
	(RF_CH).content[0] = 0b10;
 80011ae:	687b      	ldr	r3, [r7, #4]
 80011b0:	2202      	movs	r2, #2
 80011b2:	f883 2029 	strb.w	r2, [r3, #41]	; 0x29
	(RF_SETUP).content[0] = 0b1111;
 80011b6:	687b      	ldr	r3, [r7, #4]
 80011b8:	220f      	movs	r2, #15
 80011ba:	f883 2030 	strb.w	r2, [r3, #48]	; 0x30
	(STATUS).content[0] = 0b1110;
 80011be:	687b      	ldr	r3, [r7, #4]
 80011c0:	220e      	movs	r2, #14
 80011c2:	f883 2037 	strb.w	r2, [r3, #55]	; 0x37
	(OBSERVE_TX).content[0] = 0b0;
 80011c6:	687b      	ldr	r3, [r7, #4]
 80011c8:	2200      	movs	r2, #0
 80011ca:	f883 203e 	strb.w	r2, [r3, #62]	; 0x3e
	(CD).content[0] = 0b0;
 80011ce:	687b      	ldr	r3, [r7, #4]
 80011d0:	2200      	movs	r2, #0
 80011d2:	f883 2045 	strb.w	r2, [r3, #69]	; 0x45

	for(i=0;i<5;i++){
 80011d6:	2300      	movs	r3, #0
 80011d8:	72fb      	strb	r3, [r7, #11]
 80011da:	7afb      	ldrb	r3, [r7, #11]
 80011dc:	2b04      	cmp	r3, #4
 80011de:	d809      	bhi.n	80011f4 <_ZN16NRF_REGISTER_MAPC1Ev+0x26c>
		(RX_ADDR_P0).content[i] = 0xe7;
 80011e0:	7afb      	ldrb	r3, [r7, #11]
 80011e2:	687a      	ldr	r2, [r7, #4]
 80011e4:	4413      	add	r3, r2
 80011e6:	22e7      	movs	r2, #231	; 0xe7
 80011e8:	f883 204c 	strb.w	r2, [r3, #76]	; 0x4c
	(RF_SETUP).content[0] = 0b1111;
	(STATUS).content[0] = 0b1110;
	(OBSERVE_TX).content[0] = 0b0;
	(CD).content[0] = 0b0;

	for(i=0;i<5;i++){
 80011ec:	7afb      	ldrb	r3, [r7, #11]
 80011ee:	3301      	adds	r3, #1
 80011f0:	72fb      	strb	r3, [r7, #11]
 80011f2:	e7f2      	b.n	80011da <_ZN16NRF_REGISTER_MAPC1Ev+0x252>
		(RX_ADDR_P0).content[i] = 0xe7;
	}
	for(i=0;i<5;i++){
 80011f4:	2300      	movs	r3, #0
 80011f6:	72fb      	strb	r3, [r7, #11]
 80011f8:	7afb      	ldrb	r3, [r7, #11]
 80011fa:	2b04      	cmp	r3, #4
 80011fc:	d809      	bhi.n	8001212 <_ZN16NRF_REGISTER_MAPC1Ev+0x28a>
		(RX_ADDR_P1).content[i] = 0xc2;
 80011fe:	7afb      	ldrb	r3, [r7, #11]
 8001200:	687a      	ldr	r2, [r7, #4]
 8001202:	4413      	add	r3, r2
 8001204:	22c2      	movs	r2, #194	; 0xc2
 8001206:	f883 2053 	strb.w	r2, [r3, #83]	; 0x53
	(CD).content[0] = 0b0;

	for(i=0;i<5;i++){
		(RX_ADDR_P0).content[i] = 0xe7;
	}
	for(i=0;i<5;i++){
 800120a:	7afb      	ldrb	r3, [r7, #11]
 800120c:	3301      	adds	r3, #1
 800120e:	72fb      	strb	r3, [r7, #11]
 8001210:	e7f2      	b.n	80011f8 <_ZN16NRF_REGISTER_MAPC1Ev+0x270>
		(RX_ADDR_P1).content[i] = 0xc2;
	}
	(RX_ADDR_P2).content[0] = 0xc3;
 8001212:	687b      	ldr	r3, [r7, #4]
 8001214:	22c3      	movs	r2, #195	; 0xc3
 8001216:	f883 205a 	strb.w	r2, [r3, #90]	; 0x5a
	(RX_ADDR_P3).content[0] = 0xc4;
 800121a:	687b      	ldr	r3, [r7, #4]
 800121c:	22c4      	movs	r2, #196	; 0xc4
 800121e:	f883 2061 	strb.w	r2, [r3, #97]	; 0x61
	(RX_ADDR_P4).content[0] = 0xc5;
 8001222:	687b      	ldr	r3, [r7, #4]
 8001224:	22c5      	movs	r2, #197	; 0xc5
 8001226:	f883 2068 	strb.w	r2, [r3, #104]	; 0x68
	(RX_ADDR_P5).content[0] = 0xc6;
 800122a:	687b      	ldr	r3, [r7, #4]
 800122c:	22c6      	movs	r2, #198	; 0xc6
 800122e:	f883 206f 	strb.w	r2, [r3, #111]	; 0x6f
	for(i=0;i<5;i++){
 8001232:	2300      	movs	r3, #0
 8001234:	72fb      	strb	r3, [r7, #11]
 8001236:	7afb      	ldrb	r3, [r7, #11]
 8001238:	2b04      	cmp	r3, #4
 800123a:	d80b      	bhi.n	8001254 <_ZN16NRF_REGISTER_MAPC1Ev+0x2cc>
		(TX_ADDR).content[i] = 0xe7;
 800123c:	7afb      	ldrb	r3, [r7, #11]
 800123e:	687a      	ldr	r2, [r7, #4]
 8001240:	4413      	add	r3, r2
 8001242:	22e7      	movs	r2, #231	; 0xe7
 8001244:	f883 2076 	strb.w	r2, [r3, #118]	; 0x76
	}
	(RX_ADDR_P2).content[0] = 0xc3;
	(RX_ADDR_P3).content[0] = 0xc4;
	(RX_ADDR_P4).content[0] = 0xc5;
	(RX_ADDR_P5).content[0] = 0xc6;
	for(i=0;i<5;i++){
 8001248:	7afb      	ldrb	r3, [r7, #11]
 800124a:	3301      	adds	r3, #1
 800124c:	72fb      	strb	r3, [r7, #11]
 800124e:	e7f2      	b.n	8001236 <_ZN16NRF_REGISTER_MAPC1Ev+0x2ae>
 8001250:	08002f9c 	.word	0x08002f9c
		(TX_ADDR).content[i] = 0xe7;
	}
	(RX_PW_P0).content[0] = 0x00;
 8001254:	687b      	ldr	r3, [r7, #4]
 8001256:	2200      	movs	r2, #0
 8001258:	f883 207d 	strb.w	r2, [r3, #125]	; 0x7d
	(RX_PW_P1).content[0] = 0x00;
 800125c:	687b      	ldr	r3, [r7, #4]
 800125e:	2200      	movs	r2, #0
 8001260:	f883 2084 	strb.w	r2, [r3, #132]	; 0x84
	(RX_PW_P2).content[0] = 0x00;
 8001264:	687b      	ldr	r3, [r7, #4]
 8001266:	2200      	movs	r2, #0
 8001268:	f883 208b 	strb.w	r2, [r3, #139]	; 0x8b
	(RX_PW_P3).content[0] = 0x00;
 800126c:	687b      	ldr	r3, [r7, #4]
 800126e:	2200      	movs	r2, #0
 8001270:	f883 2092 	strb.w	r2, [r3, #146]	; 0x92
	(RX_PW_P4).content[0] = 0x00;
 8001274:	687b      	ldr	r3, [r7, #4]
 8001276:	2200      	movs	r2, #0
 8001278:	f883 2099 	strb.w	r2, [r3, #153]	; 0x99
	(RX_PW_P5).content[0] = 0x00;
 800127c:	687b      	ldr	r3, [r7, #4]
 800127e:	2200      	movs	r2, #0
 8001280:	f883 20a0 	strb.w	r2, [r3, #160]	; 0xa0
	(FIFO_STATUS).content[0] = 0b10001;
 8001284:	687b      	ldr	r3, [r7, #4]
 8001286:	2211      	movs	r2, #17
 8001288:	f883 20a7 	strb.w	r2, [r3, #167]	; 0xa7
	(DYNPD).content[0] = 0x00;
 800128c:	687b      	ldr	r3, [r7, #4]
 800128e:	2200      	movs	r2, #0
 8001290:	f883 20ae 	strb.w	r2, [r3, #174]	; 0xae
	(FEATURE).content[0] = 0x00;
 8001294:	687b      	ldr	r3, [r7, #4]
 8001296:	2200      	movs	r2, #0
 8001298:	f883 20b5 	strb.w	r2, [r3, #181]	; 0xb5
	//terminou de inicializar os campos de content
}
 800129c:	687b      	ldr	r3, [r7, #4]
 800129e:	4618      	mov	r0, r3
 80012a0:	3710      	adds	r7, #16
 80012a2:	46bd      	mov	sp, r7
 80012a4:	bd80      	pop	{r7, pc}
 80012a6:	bf00      	nop

080012a8 <_ZN3NRF10W_REGISTEREhhPh>:
	uint8_t RECEIVE(uint8_t* data);
	uint8_t SEND(uint8_t* data, uint8_t size = 5);
	void W_ACK_PAYLOAD(uint8_t pipe,uint8_t* pointer,uint8_t number);
	void FLUSH_TX();
	void FLUSH_RX();
	int W_REGISTER(uint8_t adress, uint8_t size,uint8_t* value) {return SPI::W_REGISTER(adress, size,value); };//WORKED! but SPI seems too much fast to NRF
 80012a8:	b580      	push	{r7, lr}
 80012aa:	b084      	sub	sp, #16
 80012ac:	af00      	add	r7, sp, #0
 80012ae:	60f8      	str	r0, [r7, #12]
 80012b0:	607b      	str	r3, [r7, #4]
 80012b2:	460b      	mov	r3, r1
 80012b4:	72fb      	strb	r3, [r7, #11]
 80012b6:	4613      	mov	r3, r2
 80012b8:	72bb      	strb	r3, [r7, #10]
 80012ba:	68fb      	ldr	r3, [r7, #12]
 80012bc:	f103 00bc 	add.w	r0, r3, #188	; 0xbc
 80012c0:	7aba      	ldrb	r2, [r7, #10]
 80012c2:	7af9      	ldrb	r1, [r7, #11]
 80012c4:	687b      	ldr	r3, [r7, #4]
 80012c6:	f7ff fcf9 	bl	8000cbc <_ZN3SPI10W_REGISTEREhhPh>
 80012ca:	4603      	mov	r3, r0
 80012cc:	4618      	mov	r0, r3
 80012ce:	3710      	adds	r7, #16
 80012d0:	46bd      	mov	sp, r7
 80012d2:	bd80      	pop	{r7, pc}

080012d4 <_ZN3NRF10R_REGISTEREhhPh>:
	int R_REGISTER(uint8_t adress, uint8_t size,uint8_t* pointer) {return SPI::R_REGISTER(adress, size, pointer); };//WORKED!
 80012d4:	b580      	push	{r7, lr}
 80012d6:	b084      	sub	sp, #16
 80012d8:	af00      	add	r7, sp, #0
 80012da:	60f8      	str	r0, [r7, #12]
 80012dc:	607b      	str	r3, [r7, #4]
 80012de:	460b      	mov	r3, r1
 80012e0:	72fb      	strb	r3, [r7, #11]
 80012e2:	4613      	mov	r3, r2
 80012e4:	72bb      	strb	r3, [r7, #10]
 80012e6:	68fb      	ldr	r3, [r7, #12]
 80012e8:	f103 00bc 	add.w	r0, r3, #188	; 0xbc
 80012ec:	7aba      	ldrb	r2, [r7, #10]
 80012ee:	7af9      	ldrb	r1, [r7, #11]
 80012f0:	687b      	ldr	r3, [r7, #4]
 80012f2:	f7ff fd05 	bl	8000d00 <_ZN3SPI10R_REGISTEREhhPh>
 80012f6:	4603      	mov	r3, r0
 80012f8:	4618      	mov	r0, r3
 80012fa:	3710      	adds	r7, #16
 80012fc:	46bd      	mov	sp, r7
 80012fe:	bd80      	pop	{r7, pc}

08001300 <_ZN3NRFC1EP12GPIO_TypeDeftS1_tP11SPI_TypeDefS1_tS1_tS1_tS1_t>:
#include "stm32f4_discovery.h"
#include "stm32f4xx_gpio.h"
#include "CONFIG.h"
#include "NRF24.h"

NRF::NRF(GPIO_TypeDef* CE_GPIO,uint16_t CE_Pin,
 8001300:	b590      	push	{r4, r7, lr}
 8001302:	b08f      	sub	sp, #60	; 0x3c
 8001304:	af00      	add	r7, sp, #0
 8001306:	60f8      	str	r0, [r7, #12]
 8001308:	60b9      	str	r1, [r7, #8]
 800130a:	603b      	str	r3, [r7, #0]
 800130c:	4613      	mov	r3, r2
 800130e:	80fb      	strh	r3, [r7, #6]
		GPIO_TypeDef* IRQ_GPIO,uint16_t IRQ_Pin,
		SPI_TypeDef* NRF_SPI,GPIO_TypeDef* NRF_CS_GPIO,uint16_t NRF_CS_Pin,
		GPIO_TypeDef* SCK_GPIO,uint16_t SCK_Pin,
		GPIO_TypeDef* MISO_GPIO,uint16_t MISO_Pin,
		GPIO_TypeDef* MOSI_GPIO,uint16_t MOSI_Pin):
	SPI(NRF_SPI,NRF_CS_GPIO,NRF_CS_Pin), NRF_REGISTER_MAP(){
 8001310:	68fb      	ldr	r3, [r7, #12]
 8001312:	f103 00bc 	add.w	r0, r3, #188	; 0xbc
 8001316:	f8b7 3054 	ldrh.w	r3, [r7, #84]	; 0x54
 800131a:	6d3a      	ldr	r2, [r7, #80]	; 0x50
 800131c:	6cf9      	ldr	r1, [r7, #76]	; 0x4c
 800131e:	f7ff fb8f 	bl	8000a40 <_ZN3SPIC1EP11SPI_TypeDefP12GPIO_TypeDeft>
 8001322:	68fb      	ldr	r3, [r7, #12]
 8001324:	4618      	mov	r0, r3
 8001326:	f7ff fe2f 	bl	8000f88 <_ZN16NRF_REGISTER_MAPC1Ev>
 800132a:	4a7e      	ldr	r2, [pc, #504]	; (8001524 <_ZN3NRFC1EP12GPIO_TypeDeftS1_tP11SPI_TypeDefS1_tS1_tS1_tS1_t+0x224>)
 800132c:	68fb      	ldr	r3, [r7, #12]
 800132e:	601a      	str	r2, [r3, #0]
	NRF_CE_GPIO = CE_GPIO;
 8001330:	68fb      	ldr	r3, [r7, #12]
 8001332:	68ba      	ldr	r2, [r7, #8]
 8001334:	f8c3 20c8 	str.w	r2, [r3, #200]	; 0xc8
	NRF_CE_Pin 	= CE_Pin;
 8001338:	68fb      	ldr	r3, [r7, #12]
 800133a:	88fa      	ldrh	r2, [r7, #6]
 800133c:	f8a3 20cc 	strh.w	r2, [r3, #204]	; 0xcc
	NRF_IRQ_GPIO= IRQ_GPIO;
 8001340:	68fb      	ldr	r3, [r7, #12]
 8001342:	683a      	ldr	r2, [r7, #0]
 8001344:	f8c3 20d0 	str.w	r2, [r3, #208]	; 0xd0
	NRF_IRQ_Pin = IRQ_Pin;
 8001348:	68fb      	ldr	r3, [r7, #12]
 800134a:	f8b7 2048 	ldrh.w	r2, [r7, #72]	; 0x48
 800134e:	f8a3 20d4 	strh.w	r2, [r3, #212]	; 0xd4

	//ENABLE the clock of NRF_CE_GPIO
	GPIO_Clock_Cmd(NRF_CE_GPIO,ENABLE);
 8001352:	68fb      	ldr	r3, [r7, #12]
 8001354:	f8d3 30c8 	ldr.w	r3, [r3, #200]	; 0xc8
 8001358:	2101      	movs	r1, #1
 800135a:	4618      	mov	r0, r3
 800135c:	f000 fda2 	bl	8001ea4 <_Z14GPIO_Clock_CmdP12GPIO_TypeDef15FunctionalState>

	//CE GPIO configuration
	GPIO_InitTypeDef GPIO_CE_initstruct;
	GPIO_CE_initstruct.GPIO_Mode	= GPIO_Mode_OUT;
 8001360:	2301      	movs	r3, #1
 8001362:	f887 3034 	strb.w	r3, [r7, #52]	; 0x34
	GPIO_CE_initstruct.GPIO_OType	= GPIO_OType_PP;
 8001366:	2300      	movs	r3, #0
 8001368:	f887 3036 	strb.w	r3, [r7, #54]	; 0x36
	GPIO_CE_initstruct.GPIO_Pin 	= NRF_CE_Pin;
 800136c:	68fb      	ldr	r3, [r7, #12]
 800136e:	f8b3 30cc 	ldrh.w	r3, [r3, #204]	; 0xcc
 8001372:	633b      	str	r3, [r7, #48]	; 0x30
	GPIO_CE_initstruct.GPIO_PuPd 	= GPIO_PuPd_NOPULL;
 8001374:	2300      	movs	r3, #0
 8001376:	f887 3037 	strb.w	r3, [r7, #55]	; 0x37
	GPIO_CE_initstruct.GPIO_Speed	= GPIO_Speed_50MHz;
 800137a:	2302      	movs	r3, #2
 800137c:	f887 3035 	strb.w	r3, [r7, #53]	; 0x35
	GPIO_Init(NRF_CE_GPIO, &GPIO_CE_initstruct);
 8001380:	68fb      	ldr	r3, [r7, #12]
 8001382:	f8d3 30c8 	ldr.w	r3, [r3, #200]	; 0xc8
 8001386:	f107 0230 	add.w	r2, r7, #48	; 0x30
 800138a:	4611      	mov	r1, r2
 800138c:	4618      	mov	r0, r3
 800138e:	f001 fa53 	bl	8002838 <GPIO_Init>
	 * configura como input, habilita a interrupção,
	 * conecta ao EXTI
	 */

	//enables the SYSCFG clock
	RCC_APB2PeriphClockCmd(RCC_APB2Periph_SYSCFG,ENABLE);
 8001392:	2101      	movs	r1, #1
 8001394:	f44f 4080 	mov.w	r0, #16384	; 0x4000
 8001398:	f001 fa2e 	bl	80027f8 <RCC_APB2PeriphClockCmd>

	GPIO_Clock_Cmd(NRF_IRQ_GPIO,ENABLE);
 800139c:	68fb      	ldr	r3, [r7, #12]
 800139e:	f8d3 30d0 	ldr.w	r3, [r3, #208]	; 0xd0
 80013a2:	2101      	movs	r1, #1
 80013a4:	4618      	mov	r0, r3
 80013a6:	f000 fd7d 	bl	8001ea4 <_Z14GPIO_Clock_CmdP12GPIO_TypeDef15FunctionalState>
	GPIO_InitTypeDef GPIO_IRQ_initstruct;
	GPIO_IRQ_initstruct.GPIO_Pin	= NRF_IRQ_Pin;
 80013aa:	68fb      	ldr	r3, [r7, #12]
 80013ac:	f8b3 30d4 	ldrh.w	r3, [r3, #212]	; 0xd4
 80013b0:	62bb      	str	r3, [r7, #40]	; 0x28
	GPIO_IRQ_initstruct.GPIO_Mode	= GPIO_Mode_IN;
 80013b2:	2300      	movs	r3, #0
 80013b4:	f887 302c 	strb.w	r3, [r7, #44]	; 0x2c
	GPIO_IRQ_initstruct.GPIO_OType	= GPIO_OType_PP;
 80013b8:	2300      	movs	r3, #0
 80013ba:	f887 302e 	strb.w	r3, [r7, #46]	; 0x2e
	GPIO_IRQ_initstruct.GPIO_PuPd	= GPIO_PuPd_UP;
 80013be:	2301      	movs	r3, #1
 80013c0:	f887 302f 	strb.w	r3, [r7, #47]	; 0x2f
	GPIO_IRQ_initstruct.GPIO_Speed	= GPIO_Speed_50MHz;
 80013c4:	2302      	movs	r3, #2
 80013c6:	f887 302d 	strb.w	r3, [r7, #45]	; 0x2d
	GPIO_Init(NRF_IRQ_GPIO,&GPIO_IRQ_initstruct);
 80013ca:	68fb      	ldr	r3, [r7, #12]
 80013cc:	f8d3 30d0 	ldr.w	r3, [r3, #208]	; 0xd0
 80013d0:	f107 0228 	add.w	r2, r7, #40	; 0x28
 80013d4:	4611      	mov	r1, r2
 80013d6:	4618      	mov	r0, r3
 80013d8:	f001 fa2e 	bl	8002838 <GPIO_Init>

	//TODO: experimentar inicializar o clock do SYSCFG depois do clock do IRQ_GPIO

	EXTI_InitTypeDef EXTI_cfg;
	EXTI_cfg.EXTI_Line		= EXTI_Line(NRF_IRQ_Pin);
 80013dc:	68fb      	ldr	r3, [r7, #12]
 80013de:	f8b3 30d4 	ldrh.w	r3, [r3, #212]	; 0xd4
 80013e2:	4618      	mov	r0, r3
 80013e4:	f000 ff98 	bl	8002318 <_Z9EXTI_Linet>
 80013e8:	4603      	mov	r3, r0
 80013ea:	623b      	str	r3, [r7, #32]
	EXTI_cfg.EXTI_LineCmd	= ENABLE;
 80013ec:	2301      	movs	r3, #1
 80013ee:	f887 3026 	strb.w	r3, [r7, #38]	; 0x26
	EXTI_cfg.EXTI_Mode		= EXTI_Mode_Interrupt;
 80013f2:	2300      	movs	r3, #0
 80013f4:	f887 3024 	strb.w	r3, [r7, #36]	; 0x24
	EXTI_cfg.EXTI_Trigger	= EXTI_Trigger_Falling;
 80013f8:	230c      	movs	r3, #12
 80013fa:	f887 3025 	strb.w	r3, [r7, #37]	; 0x25
	EXTI_Init(&EXTI_cfg);
 80013fe:	f107 0320 	add.w	r3, r7, #32
 8001402:	4618      	mov	r0, r3
 8001404:	f001 fb10 	bl	8002a28 <EXTI_Init>

	NVIC_InitTypeDef NVIC_cfg;
	NVIC_cfg.NVIC_IRQChannel					= EXTIx_IRQn(NRF_IRQ_Pin);
 8001408:	68fb      	ldr	r3, [r7, #12]
 800140a:	f8b3 30d4 	ldrh.w	r3, [r3, #212]	; 0xd4
 800140e:	4618      	mov	r0, r3
 8001410:	f000 ff18 	bl	8002244 <_Z10EXTIx_IRQnt>
 8001414:	4603      	mov	r3, r0
 8001416:	b2db      	uxtb	r3, r3
 8001418:	773b      	strb	r3, [r7, #28]
	NVIC_cfg.NVIC_IRQChannelCmd					= ENABLE;
 800141a:	2301      	movs	r3, #1
 800141c:	77fb      	strb	r3, [r7, #31]
	NVIC_cfg.NVIC_IRQChannelPreemptionPriority	= 0x0f;	//lower priority, can be preempted
 800141e:	230f      	movs	r3, #15
 8001420:	777b      	strb	r3, [r7, #29]
	NVIC_cfg.NVIC_IRQChannelSubPriority			= 0x0f;	//lower priority, can be preempted
 8001422:	230f      	movs	r3, #15
 8001424:	77bb      	strb	r3, [r7, #30]
	NVIC_Init(&NVIC_cfg);
 8001426:	f107 031c 	add.w	r3, r7, #28
 800142a:	4618      	mov	r0, r3
 800142c:	f001 fc90 	bl	8002d50 <NVIC_Init>

	SYSCFG_EXTILineConfig(EXTI_PortSource(NRF_IRQ_GPIO),EXTI_PinSource(NRF_IRQ_Pin));
 8001430:	68fb      	ldr	r3, [r7, #12]
 8001432:	f8d3 30d0 	ldr.w	r3, [r3, #208]	; 0xd0
 8001436:	4618      	mov	r0, r3
 8001438:	f000 ffde 	bl	80023f8 <_Z15EXTI_PortSourceP12GPIO_TypeDef>
 800143c:	4603      	mov	r3, r0
 800143e:	461c      	mov	r4, r3
 8001440:	68fb      	ldr	r3, [r7, #12]
 8001442:	f8b3 30d4 	ldrh.w	r3, [r3, #212]	; 0xd4
 8001446:	4618      	mov	r0, r3
 8001448:	f001 f84e 	bl	80024e8 <_Z14EXTI_PinSourcet>
 800144c:	4603      	mov	r3, r0
 800144e:	4619      	mov	r1, r3
 8001450:	4620      	mov	r0, r4
 8001452:	f001 f8b1 	bl	80025b8 <SYSCFG_EXTILineConfig>

	//MOSI, MISO, SCK GPIO configuration
	GPIO_InitTypeDef GPIO_SPI_Pins_initstruct;
	GPIO_SPI_Pins_initstruct.GPIO_Mode	= GPIO_Mode_AF;
 8001456:	2302      	movs	r3, #2
 8001458:	763b      	strb	r3, [r7, #24]
	GPIO_SPI_Pins_initstruct.GPIO_OType = GPIO_OType_PP;
 800145a:	2300      	movs	r3, #0
 800145c:	76bb      	strb	r3, [r7, #26]
	GPIO_SPI_Pins_initstruct.GPIO_PuPd	= GPIO_PuPd_NOPULL;
 800145e:	2300      	movs	r3, #0
 8001460:	76fb      	strb	r3, [r7, #27]
	GPIO_SPI_Pins_initstruct.GPIO_Speed = GPIO_Speed_50MHz;
 8001462:	2302      	movs	r3, #2
 8001464:	767b      	strb	r3, [r7, #25]

	GPIO_Clock_Cmd(SCK_GPIO, ENABLE);
 8001466:	2101      	movs	r1, #1
 8001468:	6db8      	ldr	r0, [r7, #88]	; 0x58
 800146a:	f000 fd1b 	bl	8001ea4 <_Z14GPIO_Clock_CmdP12GPIO_TypeDef15FunctionalState>
	GPIO_SPI_Pins_initstruct.GPIO_Pin = SCK_Pin;
 800146e:	f8b7 305c 	ldrh.w	r3, [r7, #92]	; 0x5c
 8001472:	617b      	str	r3, [r7, #20]
	GPIO_Init(SCK_GPIO, &GPIO_SPI_Pins_initstruct);
 8001474:	f107 0314 	add.w	r3, r7, #20
 8001478:	4619      	mov	r1, r3
 800147a:	6db8      	ldr	r0, [r7, #88]	; 0x58
 800147c:	f001 f9dc 	bl	8002838 <GPIO_Init>

	GPIO_Clock_Cmd(MISO_GPIO, ENABLE);
 8001480:	2101      	movs	r1, #1
 8001482:	6e38      	ldr	r0, [r7, #96]	; 0x60
 8001484:	f000 fd0e 	bl	8001ea4 <_Z14GPIO_Clock_CmdP12GPIO_TypeDef15FunctionalState>
	GPIO_SPI_Pins_initstruct.GPIO_Pin = MISO_Pin;
 8001488:	f8b7 3064 	ldrh.w	r3, [r7, #100]	; 0x64
 800148c:	617b      	str	r3, [r7, #20]
	GPIO_Init(MISO_GPIO, &GPIO_SPI_Pins_initstruct);
 800148e:	f107 0314 	add.w	r3, r7, #20
 8001492:	4619      	mov	r1, r3
 8001494:	6e38      	ldr	r0, [r7, #96]	; 0x60
 8001496:	f001 f9cf 	bl	8002838 <GPIO_Init>

	GPIO_Clock_Cmd(MOSI_GPIO, ENABLE);
 800149a:	2101      	movs	r1, #1
 800149c:	6eb8      	ldr	r0, [r7, #104]	; 0x68
 800149e:	f000 fd01 	bl	8001ea4 <_Z14GPIO_Clock_CmdP12GPIO_TypeDef15FunctionalState>
	GPIO_SPI_Pins_initstruct.GPIO_Pin = MOSI_Pin;
 80014a2:	f8b7 306c 	ldrh.w	r3, [r7, #108]	; 0x6c
 80014a6:	617b      	str	r3, [r7, #20]
	GPIO_Init(MOSI_GPIO, &GPIO_SPI_Pins_initstruct);
 80014a8:	f107 0314 	add.w	r3, r7, #20
 80014ac:	4619      	mov	r1, r3
 80014ae:	6eb8      	ldr	r0, [r7, #104]	; 0x68
 80014b0:	f001 f9c2 	bl	8002838 <GPIO_Init>

	//SPI1 CONFIG MOSI, MISO, SCK
	GPIO_PinAFConfig(SCK_GPIO , GPIO_PinSource(SCK_Pin) , GPIO_AF_SPIx(NRF_SPI));
 80014b4:	f8b7 305c 	ldrh.w	r3, [r7, #92]	; 0x5c
 80014b8:	4618      	mov	r0, r3
 80014ba:	f000 fe05 	bl	80020c8 <_Z14GPIO_PinSourcet>
 80014be:	4603      	mov	r3, r0
 80014c0:	461c      	mov	r4, r3
 80014c2:	6cf8      	ldr	r0, [r7, #76]	; 0x4c
 80014c4:	f000 fe6a 	bl	800219c <_Z12GPIO_AF_SPIxP11SPI_TypeDef>
 80014c8:	4603      	mov	r3, r0
 80014ca:	461a      	mov	r2, r3
 80014cc:	4621      	mov	r1, r4
 80014ce:	6db8      	ldr	r0, [r7, #88]	; 0x58
 80014d0:	f001 fa60 	bl	8002994 <GPIO_PinAFConfig>
	GPIO_PinAFConfig(MISO_GPIO, GPIO_PinSource(MISO_Pin), GPIO_AF_SPIx(NRF_SPI));
 80014d4:	f8b7 3064 	ldrh.w	r3, [r7, #100]	; 0x64
 80014d8:	4618      	mov	r0, r3
 80014da:	f000 fdf5 	bl	80020c8 <_Z14GPIO_PinSourcet>
 80014de:	4603      	mov	r3, r0
 80014e0:	461c      	mov	r4, r3
 80014e2:	6cf8      	ldr	r0, [r7, #76]	; 0x4c
 80014e4:	f000 fe5a 	bl	800219c <_Z12GPIO_AF_SPIxP11SPI_TypeDef>
 80014e8:	4603      	mov	r3, r0
 80014ea:	461a      	mov	r2, r3
 80014ec:	4621      	mov	r1, r4
 80014ee:	6e38      	ldr	r0, [r7, #96]	; 0x60
 80014f0:	f001 fa50 	bl	8002994 <GPIO_PinAFConfig>
	GPIO_PinAFConfig(MOSI_GPIO, GPIO_PinSource(MOSI_Pin), GPIO_AF_SPIx(NRF_SPI));
 80014f4:	f8b7 306c 	ldrh.w	r3, [r7, #108]	; 0x6c
 80014f8:	4618      	mov	r0, r3
 80014fa:	f000 fde5 	bl	80020c8 <_Z14GPIO_PinSourcet>
 80014fe:	4603      	mov	r3, r0
 8001500:	461c      	mov	r4, r3
 8001502:	6cf8      	ldr	r0, [r7, #76]	; 0x4c
 8001504:	f000 fe4a 	bl	800219c <_Z12GPIO_AF_SPIxP11SPI_TypeDef>
 8001508:	4603      	mov	r3, r0
 800150a:	461a      	mov	r2, r3
 800150c:	4621      	mov	r1, r4
 800150e:	6eb8      	ldr	r0, [r7, #104]	; 0x68
 8001510:	f001 fa40 	bl	8002994 <GPIO_PinAFConfig>

	//finalizada a etapa de configuração, faz o Power Up
	begin();
 8001514:	68f8      	ldr	r0, [r7, #12]
 8001516:	f000 f82b 	bl	8001570 <_ZN3NRF5beginEv>
}
 800151a:	68fb      	ldr	r3, [r7, #12]
 800151c:	4618      	mov	r0, r3
 800151e:	373c      	adds	r7, #60	; 0x3c
 8001520:	46bd      	mov	sp, r7
 8001522:	bd90      	pop	{r4, r7, pc}
 8001524:	08002fac 	.word	0x08002fac

08001528 <_ZN3NRF9ASSERT_CEEi>:

//Chip Enable ativa o modo RX ou TX
void NRF::ASSERT_CE(int STATE){
 8001528:	b580      	push	{r7, lr}
 800152a:	b082      	sub	sp, #8
 800152c:	af00      	add	r7, sp, #0
 800152e:	6078      	str	r0, [r7, #4]
 8001530:	6039      	str	r1, [r7, #0]
	if(STATE==SET){
 8001532:	683b      	ldr	r3, [r7, #0]
 8001534:	2b01      	cmp	r3, #1
 8001536:	d10a      	bne.n	800154e <_ZN3NRF9ASSERT_CEEi+0x26>
		GPIO_SetBits(NRF_CE_GPIO,NRF_CE_Pin);//CE=HIGH põe o NRF em TX
 8001538:	687b      	ldr	r3, [r7, #4]
 800153a:	f8d3 20c8 	ldr.w	r2, [r3, #200]	; 0xc8
 800153e:	687b      	ldr	r3, [r7, #4]
 8001540:	f8b3 30cc 	ldrh.w	r3, [r3, #204]	; 0xcc
 8001544:	4619      	mov	r1, r3
 8001546:	4610      	mov	r0, r2
 8001548:	f001 fa04 	bl	8002954 <GPIO_SetBits>
	}else if(STATE==RESET){
		GPIO_ResetBits(NRF_CE_GPIO,NRF_CE_Pin);//CE=LOW põe o NRF em RX
	}
}
 800154c:	e00c      	b.n	8001568 <_ZN3NRF9ASSERT_CEEi+0x40>

//Chip Enable ativa o modo RX ou TX
void NRF::ASSERT_CE(int STATE){
	if(STATE==SET){
		GPIO_SetBits(NRF_CE_GPIO,NRF_CE_Pin);//CE=HIGH põe o NRF em TX
	}else if(STATE==RESET){
 800154e:	683b      	ldr	r3, [r7, #0]
 8001550:	2b00      	cmp	r3, #0
 8001552:	d109      	bne.n	8001568 <_ZN3NRF9ASSERT_CEEi+0x40>
		GPIO_ResetBits(NRF_CE_GPIO,NRF_CE_Pin);//CE=LOW põe o NRF em RX
 8001554:	687b      	ldr	r3, [r7, #4]
 8001556:	f8d3 20c8 	ldr.w	r2, [r3, #200]	; 0xc8
 800155a:	687b      	ldr	r3, [r7, #4]
 800155c:	f8b3 30cc 	ldrh.w	r3, [r3, #204]	; 0xcc
 8001560:	4619      	mov	r1, r3
 8001562:	4610      	mov	r0, r2
 8001564:	f001 fa06 	bl	8002974 <GPIO_ResetBits>
	}
}
 8001568:	bf00      	nop
 800156a:	3708      	adds	r7, #8
 800156c:	46bd      	mov	sp, r7
 800156e:	bd80      	pop	{r7, pc}

08001570 <_ZN3NRF5beginEv>:

//supõe que o NRF estava desligado e põe ele em standby-I
void NRF::begin(){
 8001570:	b590      	push	{r4, r7, lr}
 8001572:	b085      	sub	sp, #20
 8001574:	af00      	add	r7, sp, #0
 8001576:	6078      	str	r0, [r7, #4]
	Delay_ms(11);
 8001578:	200b      	movs	r0, #11
 800157a:	f000 fc6f 	bl	8001e5c <_Z8Delay_msm>

	ASSERT_CS(SET);
 800157e:	687b      	ldr	r3, [r7, #4]
 8001580:	33bc      	adds	r3, #188	; 0xbc
 8001582:	2101      	movs	r1, #1
 8001584:	4618      	mov	r0, r3
 8001586:	f7ff fabb 	bl	8000b00 <_ZN3SPI9ASSERT_CSEi>
	ASSERT_CE(RESET);
 800158a:	2100      	movs	r1, #0
 800158c:	6878      	ldr	r0, [r7, #4]
 800158e:	f7ff ffcb 	bl	8001528 <_ZN3NRF9ASSERT_CEEi>

	//lê CONFIG
	uint8_t config;

	R_REGISTER(0x00,1, &config);
 8001592:	687b      	ldr	r3, [r7, #4]
 8001594:	681b      	ldr	r3, [r3, #0]
 8001596:	3304      	adds	r3, #4
 8001598:	681c      	ldr	r4, [r3, #0]
 800159a:	f107 030f 	add.w	r3, r7, #15
 800159e:	2201      	movs	r2, #1
 80015a0:	2100      	movs	r1, #0
 80015a2:	6878      	ldr	r0, [r7, #4]
 80015a4:	47a0      	blx	r4

	//faz PWR_UP=1, todas as interrupções são refletidas no pino de IRQ
	config = 0b00000010;
 80015a6:	2302      	movs	r3, #2
 80015a8:	73fb      	strb	r3, [r7, #15]

	//grava o novo valor de CONFIG
	W_REGISTER(0x00,1,&config);
 80015aa:	687b      	ldr	r3, [r7, #4]
 80015ac:	681b      	ldr	r3, [r3, #0]
 80015ae:	681c      	ldr	r4, [r3, #0]
 80015b0:	f107 030f 	add.w	r3, r7, #15
 80015b4:	2201      	movs	r2, #1
 80015b6:	2100      	movs	r1, #0
 80015b8:	6878      	ldr	r0, [r7, #4]
 80015ba:	47a0      	blx	r4
	Delay_ms(1);
 80015bc:	2001      	movs	r0, #1
 80015be:	f000 fc4d 	bl	8001e5c <_Z8Delay_msm>

	//Renault: escreveu 1 em 3 flags  que precisam ser  limpas no início (RX_DR,TX_DS,MAX_RT)
	uint8_t status = RX_DR_MASK|TX_DS_MASK|MAX_RT_MASK;
 80015c2:	2370      	movs	r3, #112	; 0x70
 80015c4:	73bb      	strb	r3, [r7, #14]
	W_REGISTER(0x07,1,&status);
 80015c6:	687b      	ldr	r3, [r7, #4]
 80015c8:	681b      	ldr	r3, [r3, #0]
 80015ca:	681c      	ldr	r4, [r3, #0]
 80015cc:	f107 030e 	add.w	r3, r7, #14
 80015d0:	2201      	movs	r2, #1
 80015d2:	2107      	movs	r1, #7
 80015d4:	6878      	ldr	r0, [r7, #4]
 80015d6:	47a0      	blx	r4

	Delay_ms(2);//tempo de startup
 80015d8:	2002      	movs	r0, #2
 80015da:	f000 fc3f 	bl	8001e5c <_Z8Delay_msm>
	return;
 80015de:	bf00      	nop
}
 80015e0:	3714      	adds	r7, #20
 80015e2:	46bd      	mov	sp, r7
 80015e4:	bd90      	pop	{r4, r7, pc}
 80015e6:	bf00      	nop

080015e8 <_ZN3NRF12stdbyI_to_TXEh>:

void NRF::stdbyI_to_TX(uint8_t channel){
 80015e8:	b590      	push	{r4, r7, lr}
 80015ea:	b085      	sub	sp, #20
 80015ec:	af00      	add	r7, sp, #0
 80015ee:	6078      	str	r0, [r7, #4]
 80015f0:	460b      	mov	r3, r1
 80015f2:	70fb      	strb	r3, [r7, #3]
	uint8_t config;
	R_REGISTER(0x00,1,&config);
 80015f4:	687b      	ldr	r3, [r7, #4]
 80015f6:	681b      	ldr	r3, [r3, #0]
 80015f8:	3304      	adds	r3, #4
 80015fa:	681c      	ldr	r4, [r3, #0]
 80015fc:	f107 030f 	add.w	r3, r7, #15
 8001600:	2201      	movs	r2, #1
 8001602:	2100      	movs	r1, #0
 8001604:	6878      	ldr	r0, [r7, #4]
 8001606:	47a0      	blx	r4
	Delay_ms(1);
 8001608:	2001      	movs	r0, #1
 800160a:	f000 fc27 	bl	8001e5c <_Z8Delay_msm>

	config &= 0b11111110;//makes PRIM_RX=0 (transmitter)
 800160e:	7bfb      	ldrb	r3, [r7, #15]
 8001610:	f023 0301 	bic.w	r3, r3, #1
 8001614:	b2db      	uxtb	r3, r3
 8001616:	73fb      	strb	r3, [r7, #15]
	W_REGISTER(0x00,1,&config);
 8001618:	687b      	ldr	r3, [r7, #4]
 800161a:	681b      	ldr	r3, [r3, #0]
 800161c:	681c      	ldr	r4, [r3, #0]
 800161e:	f107 030f 	add.w	r3, r7, #15
 8001622:	2201      	movs	r2, #1
 8001624:	2100      	movs	r1, #0
 8001626:	6878      	ldr	r0, [r7, #4]
 8001628:	47a0      	blx	r4
	Delay_ms(1);
 800162a:	2001      	movs	r0, #1
 800162c:	f000 fc16 	bl	8001e5c <_Z8Delay_msm>

	RF_CH_setup(channel);//setup of frequency
 8001630:	78fb      	ldrb	r3, [r7, #3]
 8001632:	4619      	mov	r1, r3
 8001634:	6878      	ldr	r0, [r7, #4]
 8001636:	f000 f865 	bl	8001704 <_ZN3NRF11RF_CH_setupEh>
	return;
 800163a:	bf00      	nop
}
 800163c:	3714      	adds	r7, #20
 800163e:	46bd      	mov	sp, r7
 8001640:	bd90      	pop	{r4, r7, pc}
 8001642:	bf00      	nop

08001644 <_ZN3NRF11EN_AA_setupEh>:
	RF_CH_setup(channel);//setup of frequency
	return;
}//WORKED!

//preenche o registrador EN_AA usando o valor ENAA_Px
void NRF::EN_AA_setup(uint8_t ENAA_Px){
 8001644:	b590      	push	{r4, r7, lr}
 8001646:	b085      	sub	sp, #20
 8001648:	af00      	add	r7, sp, #0
 800164a:	6078      	str	r0, [r7, #4]
 800164c:	460b      	mov	r3, r1
 800164e:	70fb      	strb	r3, [r7, #3]
	uint8_t en_aa = ENAA_Px;
 8001650:	78fb      	ldrb	r3, [r7, #3]
 8001652:	73fb      	strb	r3, [r7, #15]

	W_REGISTER(0x01,1,&en_aa);
 8001654:	687b      	ldr	r3, [r7, #4]
 8001656:	681b      	ldr	r3, [r3, #0]
 8001658:	681c      	ldr	r4, [r3, #0]
 800165a:	f107 030f 	add.w	r3, r7, #15
 800165e:	2201      	movs	r2, #1
 8001660:	2101      	movs	r1, #1
 8001662:	6878      	ldr	r0, [r7, #4]
 8001664:	47a0      	blx	r4
	Delay_ms(1);
 8001666:	2001      	movs	r0, #1
 8001668:	f000 fbf8 	bl	8001e5c <_Z8Delay_msm>
	
	return;
 800166c:	bf00      	nop
}//WORKED!
 800166e:	3714      	adds	r7, #20
 8001670:	46bd      	mov	sp, r7
 8001672:	bd90      	pop	{r4, r7, pc}

08001674 <_ZN3NRF15EN_RXADDR_setupEh>:

//preenche o registrador EN_RXADDR usando o valor ERX_Px
void NRF::EN_RXADDR_setup(uint8_t ERX_Px){
 8001674:	b590      	push	{r4, r7, lr}
 8001676:	b085      	sub	sp, #20
 8001678:	af00      	add	r7, sp, #0
 800167a:	6078      	str	r0, [r7, #4]
 800167c:	460b      	mov	r3, r1
 800167e:	70fb      	strb	r3, [r7, #3]
	uint8_t en_pipes = ERX_Px;
 8001680:	78fb      	ldrb	r3, [r7, #3]
 8001682:	73fb      	strb	r3, [r7, #15]

	W_REGISTER(0x02,1,&en_pipes);
 8001684:	687b      	ldr	r3, [r7, #4]
 8001686:	681b      	ldr	r3, [r3, #0]
 8001688:	681c      	ldr	r4, [r3, #0]
 800168a:	f107 030f 	add.w	r3, r7, #15
 800168e:	2201      	movs	r2, #1
 8001690:	2102      	movs	r1, #2
 8001692:	6878      	ldr	r0, [r7, #4]
 8001694:	47a0      	blx	r4
	Delay_ms(1);
 8001696:	2001      	movs	r0, #1
 8001698:	f000 fbe0 	bl	8001e5c <_Z8Delay_msm>
	
	return;
 800169c:	bf00      	nop
}//WORKED!
 800169e:	3714      	adds	r7, #20
 80016a0:	46bd      	mov	sp, r7
 80016a2:	bd90      	pop	{r4, r7, pc}

080016a4 <_ZN3NRF14SETUP_AW_setupEh>:

//preenche o registrador SETUP_AW, grava nele o valor AW
//AW deve ser construído usando as constantes AW_x_bytes
void NRF::SETUP_AW_setup(uint8_t AW){
 80016a4:	b590      	push	{r4, r7, lr}
 80016a6:	b085      	sub	sp, #20
 80016a8:	af00      	add	r7, sp, #0
 80016aa:	6078      	str	r0, [r7, #4]
 80016ac:	460b      	mov	r3, r1
 80016ae:	70fb      	strb	r3, [r7, #3]
	uint8_t address_width = AW;
 80016b0:	78fb      	ldrb	r3, [r7, #3]
 80016b2:	73fb      	strb	r3, [r7, #15]

	W_REGISTER(0x03,1,&address_width);
 80016b4:	687b      	ldr	r3, [r7, #4]
 80016b6:	681b      	ldr	r3, [r3, #0]
 80016b8:	681c      	ldr	r4, [r3, #0]
 80016ba:	f107 030f 	add.w	r3, r7, #15
 80016be:	2201      	movs	r2, #1
 80016c0:	2103      	movs	r1, #3
 80016c2:	6878      	ldr	r0, [r7, #4]
 80016c4:	47a0      	blx	r4
	Delay_ms(1);
 80016c6:	2001      	movs	r0, #1
 80016c8:	f000 fbc8 	bl	8001e5c <_Z8Delay_msm>
	
	return;
 80016cc:	bf00      	nop
}//WORKED!
 80016ce:	3714      	adds	r7, #20
 80016d0:	46bd      	mov	sp, r7
 80016d2:	bd90      	pop	{r4, r7, pc}

080016d4 <_ZN3NRF16SETUP_RETR_setupEh>:

//Setup of Automatic Retransmission, fills the SETUP_RETR with ARconfig
//should be filled with one RETR_ARC and, optionally, one RETR_ARDelay value
void NRF::SETUP_RETR_setup(uint8_t setup_retries){
 80016d4:	b590      	push	{r4, r7, lr}
 80016d6:	b085      	sub	sp, #20
 80016d8:	af00      	add	r7, sp, #0
 80016da:	6078      	str	r0, [r7, #4]
 80016dc:	460b      	mov	r3, r1
 80016de:	70fb      	strb	r3, [r7, #3]
	uint8_t ARconfig = setup_retries;
 80016e0:	78fb      	ldrb	r3, [r7, #3]
 80016e2:	73fb      	strb	r3, [r7, #15]

	W_REGISTER(0x04,1,&ARconfig);
 80016e4:	687b      	ldr	r3, [r7, #4]
 80016e6:	681b      	ldr	r3, [r3, #0]
 80016e8:	681c      	ldr	r4, [r3, #0]
 80016ea:	f107 030f 	add.w	r3, r7, #15
 80016ee:	2201      	movs	r2, #1
 80016f0:	2104      	movs	r1, #4
 80016f2:	6878      	ldr	r0, [r7, #4]
 80016f4:	47a0      	blx	r4
	Delay_ms(1);
 80016f6:	2001      	movs	r0, #1
 80016f8:	f000 fbb0 	bl	8001e5c <_Z8Delay_msm>
	
	return;
 80016fc:	bf00      	nop
}//WORKED!
 80016fe:	3714      	adds	r7, #20
 8001700:	46bd      	mov	sp, r7
 8001702:	bd90      	pop	{r4, r7, pc}

08001704 <_ZN3NRF11RF_CH_setupEh>:

//preenche o registrador RF_CH, grava o valor rf_channel
void NRF::RF_CH_setup(uint8_t channel){
 8001704:	b590      	push	{r4, r7, lr}
 8001706:	b085      	sub	sp, #20
 8001708:	af00      	add	r7, sp, #0
 800170a:	6078      	str	r0, [r7, #4]
 800170c:	460b      	mov	r3, r1
 800170e:	70fb      	strb	r3, [r7, #3]
	uint8_t rf_ch = channel;
 8001710:	78fb      	ldrb	r3, [r7, #3]
 8001712:	73fb      	strb	r3, [r7, #15]

	W_REGISTER(0x05,1,&rf_ch);
 8001714:	687b      	ldr	r3, [r7, #4]
 8001716:	681b      	ldr	r3, [r3, #0]
 8001718:	681c      	ldr	r4, [r3, #0]
 800171a:	f107 030f 	add.w	r3, r7, #15
 800171e:	2201      	movs	r2, #1
 8001720:	2105      	movs	r1, #5
 8001722:	6878      	ldr	r0, [r7, #4]
 8001724:	47a0      	blx	r4
	Delay_ms(1);
 8001726:	2001      	movs	r0, #1
 8001728:	f000 fb98 	bl	8001e5c <_Z8Delay_msm>
	
	return;
 800172c:	bf00      	nop
}//WORKED!
 800172e:	3714      	adds	r7, #20
 8001730:	46bd      	mov	sp, r7
 8001732:	bd90      	pop	{r4, r7, pc}

08001734 <_ZN3NRF14RF_SETUP_setupEh>:

//preenche o registrador RF_SETUP, grava nele o valor configuration
void NRF::RF_SETUP_setup(uint8_t configuration){
 8001734:	b590      	push	{r4, r7, lr}
 8001736:	b085      	sub	sp, #20
 8001738:	af00      	add	r7, sp, #0
 800173a:	6078      	str	r0, [r7, #4]
 800173c:	460b      	mov	r3, r1
 800173e:	70fb      	strb	r3, [r7, #3]
	uint8_t rf_setup =  configuration;
 8001740:	78fb      	ldrb	r3, [r7, #3]
 8001742:	73fb      	strb	r3, [r7, #15]

	W_REGISTER(0x06,1,&rf_setup);
 8001744:	687b      	ldr	r3, [r7, #4]
 8001746:	681b      	ldr	r3, [r3, #0]
 8001748:	681c      	ldr	r4, [r3, #0]
 800174a:	f107 030f 	add.w	r3, r7, #15
 800174e:	2201      	movs	r2, #1
 8001750:	2106      	movs	r1, #6
 8001752:	6878      	ldr	r0, [r7, #4]
 8001754:	47a0      	blx	r4
	Delay_ms(1);
 8001756:	2001      	movs	r0, #1
 8001758:	f000 fb80 	bl	8001e5c <_Z8Delay_msm>
	
	return;
 800175c:	bf00      	nop
}//WORKED!
 800175e:	3714      	adds	r7, #20
 8001760:	46bd      	mov	sp, r7
 8001762:	bd90      	pop	{r4, r7, pc}

08001764 <_ZN3NRF16RX_ADDR_Px_setupEhPh>:

//preenche o registrador RX_ADDR_Px da pipe associada, usando o(s) byte(s) em pointer
void NRF::RX_ADDR_Px_setup(uint8_t RX_Pipe,uint8_t* pointer){
 8001764:	b590      	push	{r4, r7, lr}
 8001766:	b085      	sub	sp, #20
 8001768:	af00      	add	r7, sp, #0
 800176a:	60f8      	str	r0, [r7, #12]
 800176c:	460b      	mov	r3, r1
 800176e:	607a      	str	r2, [r7, #4]
 8001770:	72fb      	strb	r3, [r7, #11]
	if(RX_Pipe == RX_Pipe_0)
 8001772:	7afb      	ldrb	r3, [r7, #11]
 8001774:	2b00      	cmp	r3, #0
 8001776:	d104      	bne.n	8001782 <_ZN3NRF16RX_ADDR_Px_setupEhPh+0x1e>
		RX_ADDR_P0_setup(pointer);
 8001778:	6879      	ldr	r1, [r7, #4]
 800177a:	68f8      	ldr	r0, [r7, #12]
 800177c:	f000 f81a 	bl	80017b4 <_ZN3NRF16RX_ADDR_P0_setupEPh>
		//TODO:melhorar a portabilidade, adicionar constantes com o endereço de cada registrador
		W_REGISTER(0x0a+RX_Pipe,1,pointer);
		Delay_ms(1);
	
	}
	return;
 8001780:	e015      	b.n	80017ae <_ZN3NRF16RX_ADDR_Px_setupEhPh+0x4a>

//preenche o registrador RX_ADDR_Px da pipe associada, usando o(s) byte(s) em pointer
void NRF::RX_ADDR_Px_setup(uint8_t RX_Pipe,uint8_t* pointer){
	if(RX_Pipe == RX_Pipe_0)
		RX_ADDR_P0_setup(pointer);
	else if(RX_Pipe == RX_Pipe_1)
 8001782:	7afb      	ldrb	r3, [r7, #11]
 8001784:	2b01      	cmp	r3, #1
 8001786:	d104      	bne.n	8001792 <_ZN3NRF16RX_ADDR_Px_setupEhPh+0x2e>
		RX_ADDR_P1_setup(pointer);
 8001788:	6879      	ldr	r1, [r7, #4]
 800178a:	68f8      	ldr	r0, [r7, #12]
 800178c:	f000 f840 	bl	8001810 <_ZN3NRF16RX_ADDR_P1_setupEPh>
		//TODO:melhorar a portabilidade, adicionar constantes com o endereço de cada registrador
		W_REGISTER(0x0a+RX_Pipe,1,pointer);
		Delay_ms(1);
	
	}
	return;
 8001790:	e00d      	b.n	80017ae <_ZN3NRF16RX_ADDR_Px_setupEhPh+0x4a>
		RX_ADDR_P0_setup(pointer);
	else if(RX_Pipe == RX_Pipe_1)
		RX_ADDR_P1_setup(pointer);
	else{
		//TODO:melhorar a portabilidade, adicionar constantes com o endereço de cada registrador
		W_REGISTER(0x0a+RX_Pipe,1,pointer);
 8001792:	68fb      	ldr	r3, [r7, #12]
 8001794:	681b      	ldr	r3, [r3, #0]
 8001796:	681c      	ldr	r4, [r3, #0]
 8001798:	7afb      	ldrb	r3, [r7, #11]
 800179a:	330a      	adds	r3, #10
 800179c:	b2d9      	uxtb	r1, r3
 800179e:	687b      	ldr	r3, [r7, #4]
 80017a0:	2201      	movs	r2, #1
 80017a2:	68f8      	ldr	r0, [r7, #12]
 80017a4:	47a0      	blx	r4
		Delay_ms(1);
 80017a6:	2001      	movs	r0, #1
 80017a8:	f000 fb58 	bl	8001e5c <_Z8Delay_msm>
	
	}
	return;
 80017ac:	bf00      	nop
}//WORKED!
 80017ae:	3714      	adds	r7, #20
 80017b0:	46bd      	mov	sp, r7
 80017b2:	bd90      	pop	{r4, r7, pc}

080017b4 <_ZN3NRF16RX_ADDR_P0_setupEPh>:

//preenche o registrador RX_ADDR_P0 com os bytes em pointer, usa o número de bytes especificado por SETUP_AW
void NRF::RX_ADDR_P0_setup(uint8_t* pointer){
 80017b4:	b590      	push	{r4, r7, lr}
 80017b6:	b085      	sub	sp, #20
 80017b8:	af00      	add	r7, sp, #0
 80017ba:	6078      	str	r0, [r7, #4]
 80017bc:	6039      	str	r1, [r7, #0]
	uint8_t size;
	//TODO:melhorar a portabilidade, adicionar constantes com o endereço de cada registrador
	R_REGISTER(0x03,1,&size);//lê SETUP_AW e armazena em size (OBS:SETUP_AW armazena armazena address_width - 2)
 80017be:	687b      	ldr	r3, [r7, #4]
 80017c0:	681b      	ldr	r3, [r3, #0]
 80017c2:	3304      	adds	r3, #4
 80017c4:	681c      	ldr	r4, [r3, #0]
 80017c6:	f107 030f 	add.w	r3, r7, #15
 80017ca:	2201      	movs	r2, #1
 80017cc:	2103      	movs	r1, #3
 80017ce:	6878      	ldr	r0, [r7, #4]
 80017d0:	47a0      	blx	r4

	//corrige os valores de size lidos
	if(size == AW_3_bytes)
 80017d2:	7bfb      	ldrb	r3, [r7, #15]
 80017d4:	2b01      	cmp	r3, #1
 80017d6:	d101      	bne.n	80017dc <_ZN3NRF16RX_ADDR_P0_setupEPh+0x28>
		size = 3;
 80017d8:	2303      	movs	r3, #3
 80017da:	73fb      	strb	r3, [r7, #15]
	if(size == AW_4_bytes)
 80017dc:	7bfb      	ldrb	r3, [r7, #15]
 80017de:	2b02      	cmp	r3, #2
 80017e0:	d101      	bne.n	80017e6 <_ZN3NRF16RX_ADDR_P0_setupEPh+0x32>
		size = 4;
 80017e2:	2304      	movs	r3, #4
 80017e4:	73fb      	strb	r3, [r7, #15]
	if(size == AW_5_bytes)
 80017e6:	7bfb      	ldrb	r3, [r7, #15]
 80017e8:	2b03      	cmp	r3, #3
 80017ea:	d101      	bne.n	80017f0 <_ZN3NRF16RX_ADDR_P0_setupEPh+0x3c>
		size = 5;
 80017ec:	2305      	movs	r3, #5
 80017ee:	73fb      	strb	r3, [r7, #15]
	//TODO:melhorar a portabilidade, adicionar constantes com o endereço de cada registrador
	W_REGISTER(0x0a,size,pointer);
 80017f0:	687b      	ldr	r3, [r7, #4]
 80017f2:	681b      	ldr	r3, [r3, #0]
 80017f4:	681c      	ldr	r4, [r3, #0]
 80017f6:	7bfa      	ldrb	r2, [r7, #15]
 80017f8:	683b      	ldr	r3, [r7, #0]
 80017fa:	210a      	movs	r1, #10
 80017fc:	6878      	ldr	r0, [r7, #4]
 80017fe:	47a0      	blx	r4
	Delay_ms(1);
 8001800:	2001      	movs	r0, #1
 8001802:	f000 fb2b 	bl	8001e5c <_Z8Delay_msm>
	
	return;
 8001806:	bf00      	nop
}//WORKED!
 8001808:	3714      	adds	r7, #20
 800180a:	46bd      	mov	sp, r7
 800180c:	bd90      	pop	{r4, r7, pc}
 800180e:	bf00      	nop

08001810 <_ZN3NRF16RX_ADDR_P1_setupEPh>:

//preenche o registrador RX_ADDR_P1 com os bytes em pointer, usa o número de bytes especificado por SETUP_AW
void NRF::RX_ADDR_P1_setup(uint8_t* pointer){
 8001810:	b590      	push	{r4, r7, lr}
 8001812:	b085      	sub	sp, #20
 8001814:	af00      	add	r7, sp, #0
 8001816:	6078      	str	r0, [r7, #4]
 8001818:	6039      	str	r1, [r7, #0]
	uint8_t size;
	//TODO:melhorar a portabilidade, adicionar constantes com o endereço de cada registrador
	R_REGISTER(0x03,1,&size);//lê SETUP_AW e armazena em size (OBS:SETUP_AW armazena armazena address_width - 2)
 800181a:	687b      	ldr	r3, [r7, #4]
 800181c:	681b      	ldr	r3, [r3, #0]
 800181e:	3304      	adds	r3, #4
 8001820:	681c      	ldr	r4, [r3, #0]
 8001822:	f107 030f 	add.w	r3, r7, #15
 8001826:	2201      	movs	r2, #1
 8001828:	2103      	movs	r1, #3
 800182a:	6878      	ldr	r0, [r7, #4]
 800182c:	47a0      	blx	r4

	//corrige os valores de size lidos
	if(size == AW_3_bytes)
 800182e:	7bfb      	ldrb	r3, [r7, #15]
 8001830:	2b01      	cmp	r3, #1
 8001832:	d101      	bne.n	8001838 <_ZN3NRF16RX_ADDR_P1_setupEPh+0x28>
		size = 3;
 8001834:	2303      	movs	r3, #3
 8001836:	73fb      	strb	r3, [r7, #15]
	if(size == AW_4_bytes)
 8001838:	7bfb      	ldrb	r3, [r7, #15]
 800183a:	2b02      	cmp	r3, #2
 800183c:	d101      	bne.n	8001842 <_ZN3NRF16RX_ADDR_P1_setupEPh+0x32>
		size = 4;
 800183e:	2304      	movs	r3, #4
 8001840:	73fb      	strb	r3, [r7, #15]
	if(size == AW_5_bytes)
 8001842:	7bfb      	ldrb	r3, [r7, #15]
 8001844:	2b03      	cmp	r3, #3
 8001846:	d101      	bne.n	800184c <_ZN3NRF16RX_ADDR_P1_setupEPh+0x3c>
		size = 5;
 8001848:	2305      	movs	r3, #5
 800184a:	73fb      	strb	r3, [r7, #15]
	//TODO:melhorar a portabilidade, adicionar constantes com o endereço de cada registrador
	W_REGISTER(0x0b,size,pointer);
 800184c:	687b      	ldr	r3, [r7, #4]
 800184e:	681b      	ldr	r3, [r3, #0]
 8001850:	681c      	ldr	r4, [r3, #0]
 8001852:	7bfa      	ldrb	r2, [r7, #15]
 8001854:	683b      	ldr	r3, [r7, #0]
 8001856:	210b      	movs	r1, #11
 8001858:	6878      	ldr	r0, [r7, #4]
 800185a:	47a0      	blx	r4
	Delay_ms(1);
 800185c:	2001      	movs	r0, #1
 800185e:	f000 fafd 	bl	8001e5c <_Z8Delay_msm>
	
	return;
 8001862:	bf00      	nop
}//WORKED!
 8001864:	3714      	adds	r7, #20
 8001866:	46bd      	mov	sp, r7
 8001868:	bd90      	pop	{r4, r7, pc}
 800186a:	bf00      	nop

0800186c <_ZN3NRF14RX_PW_Px_setupEhh>:

//escreve o registrador RX_PW_Px correspondente a pipe, grava payload_width
void NRF::RX_PW_Px_setup(uint8_t RX_Pipe, uint8_t payload_width){
 800186c:	b590      	push	{r4, r7, lr}
 800186e:	b085      	sub	sp, #20
 8001870:	af00      	add	r7, sp, #0
 8001872:	6078      	str	r0, [r7, #4]
 8001874:	460b      	mov	r3, r1
 8001876:	70fb      	strb	r3, [r7, #3]
 8001878:	4613      	mov	r3, r2
 800187a:	70bb      	strb	r3, [r7, #2]
	uint8_t pw = payload_width;
 800187c:	78bb      	ldrb	r3, [r7, #2]
 800187e:	73fb      	strb	r3, [r7, #15]

	//TODO:melhorar a portabilidade, adicionar constantes com o endereço de cada registrador
	W_REGISTER(0x11+RX_Pipe,1,&pw);
 8001880:	687b      	ldr	r3, [r7, #4]
 8001882:	681b      	ldr	r3, [r3, #0]
 8001884:	681c      	ldr	r4, [r3, #0]
 8001886:	78fb      	ldrb	r3, [r7, #3]
 8001888:	3311      	adds	r3, #17
 800188a:	b2d9      	uxtb	r1, r3
 800188c:	f107 030f 	add.w	r3, r7, #15
 8001890:	2201      	movs	r2, #1
 8001892:	6878      	ldr	r0, [r7, #4]
 8001894:	47a0      	blx	r4
	Delay_ms(1);
 8001896:	2001      	movs	r0, #1
 8001898:	f000 fae0 	bl	8001e5c <_Z8Delay_msm>
	
	return;
 800189c:	bf00      	nop
}//WORKED!
 800189e:	3714      	adds	r7, #20
 80018a0:	46bd      	mov	sp, r7
 80018a2:	bd90      	pop	{r4, r7, pc}

080018a4 <_ZN3NRF13FEATURE_setupEh>:

void NRF::FEATURE_setup(uint8_t FEATURE){
 80018a4:	b590      	push	{r4, r7, lr}
 80018a6:	b085      	sub	sp, #20
 80018a8:	af00      	add	r7, sp, #0
 80018aa:	6078      	str	r0, [r7, #4]
 80018ac:	460b      	mov	r3, r1
 80018ae:	70fb      	strb	r3, [r7, #3]
	uint8_t feature = FEATURE;
 80018b0:	78fb      	ldrb	r3, [r7, #3]
 80018b2:	73fb      	strb	r3, [r7, #15]

	W_REGISTER(0x1d,1,&feature);
 80018b4:	687b      	ldr	r3, [r7, #4]
 80018b6:	681b      	ldr	r3, [r3, #0]
 80018b8:	681c      	ldr	r4, [r3, #0]
 80018ba:	f107 030f 	add.w	r3, r7, #15
 80018be:	2201      	movs	r2, #1
 80018c0:	211d      	movs	r1, #29
 80018c2:	6878      	ldr	r0, [r7, #4]
 80018c4:	47a0      	blx	r4
	Delay_ms(1);
 80018c6:	2001      	movs	r0, #1
 80018c8:	f000 fac8 	bl	8001e5c <_Z8Delay_msm>

	return;
 80018cc:	bf00      	nop
}
 80018ce:	3714      	adds	r7, #20
 80018d0:	46bd      	mov	sp, r7
 80018d2:	bd90      	pop	{r4, r7, pc}

080018d4 <_ZN3NRF11DYNPD_setupEh>:

void NRF::DYNPD_setup(uint8_t DYNPD){
 80018d4:	b590      	push	{r4, r7, lr}
 80018d6:	b085      	sub	sp, #20
 80018d8:	af00      	add	r7, sp, #0
 80018da:	6078      	str	r0, [r7, #4]
 80018dc:	460b      	mov	r3, r1
 80018de:	70fb      	strb	r3, [r7, #3]
	uint8_t dynpd = DYNPD;
 80018e0:	78fb      	ldrb	r3, [r7, #3]
 80018e2:	73fb      	strb	r3, [r7, #15]

	W_REGISTER(0x1c,1,&dynpd);
 80018e4:	687b      	ldr	r3, [r7, #4]
 80018e6:	681b      	ldr	r3, [r3, #0]
 80018e8:	681c      	ldr	r4, [r3, #0]
 80018ea:	f107 030f 	add.w	r3, r7, #15
 80018ee:	2201      	movs	r2, #1
 80018f0:	211c      	movs	r1, #28
 80018f2:	6878      	ldr	r0, [r7, #4]
 80018f4:	47a0      	blx	r4
	Delay_ms(1);
 80018f6:	2001      	movs	r0, #1
 80018f8:	f000 fab0 	bl	8001e5c <_Z8Delay_msm>

	return;
 80018fc:	bf00      	nop
}
 80018fe:	3714      	adds	r7, #20
 8001900:	46bd      	mov	sp, r7
 8001902:	bd90      	pop	{r4, r7, pc}

08001904 <_ZN3NRF10DATA_READYEv>:

//retorna 1 se o NRF24 recebeu alguma coisa, retorna 0 se ainda não recebeu nada
uint8_t NRF::DATA_READY(void){
 8001904:	b590      	push	{r4, r7, lr}
 8001906:	b085      	sub	sp, #20
 8001908:	af00      	add	r7, sp, #0
 800190a:	6078      	str	r0, [r7, #4]
	uint8_t rx_empty=0;
 800190c:	2300      	movs	r3, #0
 800190e:	72fb      	strb	r3, [r7, #11]

	R_REGISTER(0x17,1,&rx_empty);
 8001910:	687b      	ldr	r3, [r7, #4]
 8001912:	681b      	ldr	r3, [r3, #0]
 8001914:	3304      	adds	r3, #4
 8001916:	681c      	ldr	r4, [r3, #0]
 8001918:	f107 030b 	add.w	r3, r7, #11
 800191c:	2201      	movs	r2, #1
 800191e:	2117      	movs	r1, #23
 8001920:	6878      	ldr	r0, [r7, #4]
 8001922:	47a0      	blx	r4
	rx_empty &= RX_EMPTY_MASK;
 8001924:	7afb      	ldrb	r3, [r7, #11]
 8001926:	f003 0301 	and.w	r3, r3, #1
 800192a:	b2db      	uxtb	r3, r3
 800192c:	72fb      	strb	r3, [r7, #11]

	uint8_t rx_dr;
	R_REGISTER(0x07,1,&rx_dr);
 800192e:	687b      	ldr	r3, [r7, #4]
 8001930:	681b      	ldr	r3, [r3, #0]
 8001932:	3304      	adds	r3, #4
 8001934:	681c      	ldr	r4, [r3, #0]
 8001936:	f107 030a 	add.w	r3, r7, #10
 800193a:	2201      	movs	r2, #1
 800193c:	2107      	movs	r1, #7
 800193e:	6878      	ldr	r0, [r7, #4]
 8001940:	47a0      	blx	r4
	STD_ITER_DELAY
 8001942:	2300      	movs	r3, #0
 8001944:	60fb      	str	r3, [r7, #12]
 8001946:	68fb      	ldr	r3, [r7, #12]
 8001948:	f640 62e1 	movw	r2, #3809	; 0xee1
 800194c:	4293      	cmp	r3, r2
 800194e:	dc03      	bgt.n	8001958 <_ZN3NRF10DATA_READYEv+0x54>
 8001950:	68fb      	ldr	r3, [r7, #12]
 8001952:	3301      	adds	r3, #1
 8001954:	60fb      	str	r3, [r7, #12]
 8001956:	e7f6      	b.n	8001946 <_ZN3NRF10DATA_READYEv+0x42>
	rx_dr &= RX_DR_MASK;
 8001958:	7abb      	ldrb	r3, [r7, #10]
 800195a:	f003 0340 	and.w	r3, r3, #64	; 0x40
 800195e:	b2db      	uxtb	r3, r3
 8001960:	72bb      	strb	r3, [r7, #10]

	if(rx_dr || !rx_empty){
 8001962:	7abb      	ldrb	r3, [r7, #10]
 8001964:	2b00      	cmp	r3, #0
 8001966:	d102      	bne.n	800196e <_ZN3NRF10DATA_READYEv+0x6a>
 8001968:	7afb      	ldrb	r3, [r7, #11]
 800196a:	2b00      	cmp	r3, #0
 800196c:	d101      	bne.n	8001972 <_ZN3NRF10DATA_READYEv+0x6e>
		return 1;
 800196e:	2301      	movs	r3, #1
 8001970:	e000      	b.n	8001974 <_ZN3NRF10DATA_READYEv+0x70>
	}
	else
		return 0;
 8001972:	2300      	movs	r3, #0
}
 8001974:	4618      	mov	r0, r3
 8001976:	3714      	adds	r7, #20
 8001978:	46bd      	mov	sp, r7
 800197a:	bd90      	pop	{r4, r7, pc}

0800197c <_ZN3NRF11TRANSMITTEDEv>:

//retorna 1 se o NRF24 enviou alguma coisa(recebeu o ACK, caso esteja habilitado), retorna 0 se ainda não conseguiu enviar(ou não recebeu o ACK, caso esteja habilitado)
uint8_t NRF::TRANSMITTED(void){
 800197c:	b590      	push	{r4, r7, lr}
 800197e:	b087      	sub	sp, #28
 8001980:	af00      	add	r7, sp, #0
 8001982:	6078      	str	r0, [r7, #4]
	uint8_t fifo_status;
	uint8_t status;

	R_REGISTER(FIFO_STATUS_ADDRESS,1,&fifo_status);
 8001984:	687b      	ldr	r3, [r7, #4]
 8001986:	681b      	ldr	r3, [r3, #0]
 8001988:	3304      	adds	r3, #4
 800198a:	681c      	ldr	r4, [r3, #0]
 800198c:	f107 030b 	add.w	r3, r7, #11
 8001990:	2201      	movs	r2, #1
 8001992:	2117      	movs	r1, #23
 8001994:	6878      	ldr	r0, [r7, #4]
 8001996:	47a0      	blx	r4
	for (int i=0;i<0x1dc4;i++);
 8001998:	2300      	movs	r3, #0
 800199a:	617b      	str	r3, [r7, #20]
 800199c:	697b      	ldr	r3, [r7, #20]
 800199e:	f641 52c3 	movw	r2, #7619	; 0x1dc3
 80019a2:	4293      	cmp	r3, r2
 80019a4:	dc03      	bgt.n	80019ae <_ZN3NRF11TRANSMITTEDEv+0x32>
 80019a6:	697b      	ldr	r3, [r7, #20]
 80019a8:	3301      	adds	r3, #1
 80019aa:	617b      	str	r3, [r7, #20]
 80019ac:	e7f6      	b.n	800199c <_ZN3NRF11TRANSMITTEDEv+0x20>
	fifo_status &= TX_EMPTY_MASK;
 80019ae:	7afb      	ldrb	r3, [r7, #11]
 80019b0:	f003 0310 	and.w	r3, r3, #16
 80019b4:	b2db      	uxtb	r3, r3
 80019b6:	72fb      	strb	r3, [r7, #11]

	R_REGISTER(STATUS_ADDRESS,1,&status);
 80019b8:	687b      	ldr	r3, [r7, #4]
 80019ba:	681b      	ldr	r3, [r3, #0]
 80019bc:	3304      	adds	r3, #4
 80019be:	681c      	ldr	r4, [r3, #0]
 80019c0:	f107 030a 	add.w	r3, r7, #10
 80019c4:	2201      	movs	r2, #1
 80019c6:	2107      	movs	r1, #7
 80019c8:	6878      	ldr	r0, [r7, #4]
 80019ca:	47a0      	blx	r4
	for (int i=0;i<0x1dc4;i++);
 80019cc:	2300      	movs	r3, #0
 80019ce:	613b      	str	r3, [r7, #16]
 80019d0:	693b      	ldr	r3, [r7, #16]
 80019d2:	f641 52c3 	movw	r2, #7619	; 0x1dc3
 80019d6:	4293      	cmp	r3, r2
 80019d8:	dc03      	bgt.n	80019e2 <_ZN3NRF11TRANSMITTEDEv+0x66>
 80019da:	693b      	ldr	r3, [r7, #16]
 80019dc:	3301      	adds	r3, #1
 80019de:	613b      	str	r3, [r7, #16]
 80019e0:	e7f6      	b.n	80019d0 <_ZN3NRF11TRANSMITTEDEv+0x54>

	//if((status & TX_DS_MASK) || !(fifo_status & TX_EMPTY_MASK))
	if(status & TX_DS_MASK){
 80019e2:	7abb      	ldrb	r3, [r7, #10]
 80019e4:	f003 0320 	and.w	r3, r3, #32
 80019e8:	2b00      	cmp	r3, #0
 80019ea:	d01e      	beq.n	8001a2a <_ZN3NRF11TRANSMITTEDEv+0xae>
		ASSERT_CE(RESET);//para evitar problemas (novas interrupções) e pq W_REGISTER() só pode ser chamada com CE=LOW
 80019ec:	2100      	movs	r1, #0
 80019ee:	6878      	ldr	r0, [r7, #4]
 80019f0:	f7ff fd9a 	bl	8001528 <_ZN3NRF9ASSERT_CEEi>
		status |= TX_DS_MASK;//reseta a flag TX_DS
 80019f4:	7abb      	ldrb	r3, [r7, #10]
 80019f6:	f043 0320 	orr.w	r3, r3, #32
 80019fa:	b2db      	uxtb	r3, r3
 80019fc:	72bb      	strb	r3, [r7, #10]
		W_REGISTER(STATUS_ADDRESS,1,&status);
 80019fe:	687b      	ldr	r3, [r7, #4]
 8001a00:	681b      	ldr	r3, [r3, #0]
 8001a02:	681c      	ldr	r4, [r3, #0]
 8001a04:	f107 030a 	add.w	r3, r7, #10
 8001a08:	2201      	movs	r2, #1
 8001a0a:	2107      	movs	r1, #7
 8001a0c:	6878      	ldr	r0, [r7, #4]
 8001a0e:	47a0      	blx	r4
		STD_ITER_DELAY
 8001a10:	2300      	movs	r3, #0
 8001a12:	60fb      	str	r3, [r7, #12]
 8001a14:	68fb      	ldr	r3, [r7, #12]
 8001a16:	f640 62e1 	movw	r2, #3809	; 0xee1
 8001a1a:	4293      	cmp	r3, r2
 8001a1c:	dc03      	bgt.n	8001a26 <_ZN3NRF11TRANSMITTEDEv+0xaa>
 8001a1e:	68fb      	ldr	r3, [r7, #12]
 8001a20:	3301      	adds	r3, #1
 8001a22:	60fb      	str	r3, [r7, #12]
 8001a24:	e7f6      	b.n	8001a14 <_ZN3NRF11TRANSMITTEDEv+0x98>
		return 1;
 8001a26:	2301      	movs	r3, #1
 8001a28:	e000      	b.n	8001a2c <_ZN3NRF11TRANSMITTEDEv+0xb0>
	}
	else
		return 0;
 8001a2a:	2300      	movs	r3, #0
}
 8001a2c:	4618      	mov	r0, r3
 8001a2e:	371c      	adds	r7, #28
 8001a30:	46bd      	mov	sp, r7
 8001a32:	bd90      	pop	{r4, r7, pc}

08001a34 <_ZN3NRF4SENDEPhh>:

//tenta a transmissão
//data: ponteiro para os bytes a serem transmitidos; size: número de bytes a enviar
//retorna 1 se o NRF24 enviou alguma coisa(recebeu o ACK, caso esteja habilitado), retorna 0 se ainda não conseguiu enviar(ou não recebeu o ACK, caso esteja habilitado)
uint8_t NRF::SEND(uint8_t* data, uint8_t size){
 8001a34:	b580      	push	{r7, lr}
 8001a36:	b086      	sub	sp, #24
 8001a38:	af00      	add	r7, sp, #0
 8001a3a:	60f8      	str	r0, [r7, #12]
 8001a3c:	60b9      	str	r1, [r7, #8]
 8001a3e:	4613      	mov	r3, r2
 8001a40:	71fb      	strb	r3, [r7, #7]
	W_TX_PAYLOAD(data,size);
 8001a42:	68fb      	ldr	r3, [r7, #12]
 8001a44:	33bc      	adds	r3, #188	; 0xbc
 8001a46:	79fa      	ldrb	r2, [r7, #7]
 8001a48:	68b9      	ldr	r1, [r7, #8]
 8001a4a:	4618      	mov	r0, r3
 8001a4c:	f7ff f974 	bl	8000d38 <_ZN3SPI12W_TX_PAYLOADEPhh>
	for (int i=0;i<0x1dc4;i++);
 8001a50:	2300      	movs	r3, #0
 8001a52:	617b      	str	r3, [r7, #20]
 8001a54:	697b      	ldr	r3, [r7, #20]
 8001a56:	f641 52c3 	movw	r2, #7619	; 0x1dc3
 8001a5a:	4293      	cmp	r3, r2
 8001a5c:	dc03      	bgt.n	8001a66 <_ZN3NRF4SENDEPhh+0x32>
 8001a5e:	697b      	ldr	r3, [r7, #20]
 8001a60:	3301      	adds	r3, #1
 8001a62:	617b      	str	r3, [r7, #20]
 8001a64:	e7f6      	b.n	8001a54 <_ZN3NRF4SENDEPhh+0x20>

	//pulse on CE to start transmission
	ASSERT_CE(SET);
 8001a66:	2101      	movs	r1, #1
 8001a68:	68f8      	ldr	r0, [r7, #12]
 8001a6a:	f7ff fd5d 	bl	8001528 <_ZN3NRF9ASSERT_CEEi>
	for (int i=0;i<0x1dc4;i++);//minimum pulse width = 10us, here we use 100us
 8001a6e:	2300      	movs	r3, #0
 8001a70:	613b      	str	r3, [r7, #16]
 8001a72:	693b      	ldr	r3, [r7, #16]
 8001a74:	f641 52c3 	movw	r2, #7619	; 0x1dc3
 8001a78:	4293      	cmp	r3, r2
 8001a7a:	dc03      	bgt.n	8001a84 <_ZN3NRF4SENDEPhh+0x50>
 8001a7c:	693b      	ldr	r3, [r7, #16]
 8001a7e:	3301      	adds	r3, #1
 8001a80:	613b      	str	r3, [r7, #16]
 8001a82:	e7f6      	b.n	8001a72 <_ZN3NRF4SENDEPhh+0x3e>
	ASSERT_CE(RESET);
 8001a84:	2100      	movs	r1, #0
 8001a86:	68f8      	ldr	r0, [r7, #12]
 8001a88:	f7ff fd4e 	bl	8001528 <_ZN3NRF9ASSERT_CEEi>

	//TODO consertar o valor de retorno de NRF::SEND
	return TRANSMITTED();
 8001a8c:	68f8      	ldr	r0, [r7, #12]
 8001a8e:	f7ff ff75 	bl	800197c <_ZN3NRF11TRANSMITTEDEv>
 8001a92:	4603      	mov	r3, r0
}
 8001a94:	4618      	mov	r0, r3
 8001a96:	3718      	adds	r7, #24
 8001a98:	46bd      	mov	sp, r7
 8001a9a:	bd80      	pop	{r7, pc}

08001a9c <_ZN3NRF11stop_listenEv>:
void NRF::start_listen(){
	ASSERT_CE(SET);
	return;
}

void NRF::stop_listen(){
 8001a9c:	b580      	push	{r7, lr}
 8001a9e:	b082      	sub	sp, #8
 8001aa0:	af00      	add	r7, sp, #0
 8001aa2:	6078      	str	r0, [r7, #4]
	ASSERT_CE(RESET);
 8001aa4:	2100      	movs	r1, #0
 8001aa6:	6878      	ldr	r0, [r7, #4]
 8001aa8:	f7ff fd3e 	bl	8001528 <_ZN3NRF9ASSERT_CEEi>
	return;
 8001aac:	bf00      	nop
}
 8001aae:	3708      	adds	r7, #8
 8001ab0:	46bd      	mov	sp, r7
 8001ab2:	bd80      	pop	{r7, pc}

08001ab4 <_ZN3NRF7RECEIVEEPh>:
 * Armazena em data a mensagem mais recente
 * lê todos os  pacotes na RX_FIFO, apenas o mais recente é passado
 * data: ponteiro que armazenará os bytes recebidos;
 * retorna 1 se o NRF24 recebeu alguma coisa, retorna 0 se ainda não conseguiu receber
 */
uint8_t NRF::RECEIVE(uint8_t* data){
 8001ab4:	b590      	push	{r4, r7, lr}
 8001ab6:	b087      	sub	sp, #28
 8001ab8:	af00      	add	r7, sp, #0
 8001aba:	6078      	str	r0, [r7, #4]
 8001abc:	6039      	str	r1, [r7, #0]
	//passa aqui

	if(DATA_READY()){//verifica se recebeu algo
 8001abe:	6878      	ldr	r0, [r7, #4]
 8001ac0:	f7ff ff20 	bl	8001904 <_ZN3NRF10DATA_READYEv>
 8001ac4:	4603      	mov	r3, r0
 8001ac6:	2b00      	cmp	r3, #0
 8001ac8:	bf14      	ite	ne
 8001aca:	2301      	movne	r3, #1
 8001acc:	2300      	moveq	r3, #0
 8001ace:	b2db      	uxtb	r3, r3
 8001ad0:	2b00      	cmp	r3, #0
 8001ad2:	d052      	beq.n	8001b7a <_ZN3NRF7RECEIVEEPh+0xc6>

		ASSERT_CE(RESET);//para evitar problemas (novas interrupções)
 8001ad4:	2100      	movs	r1, #0
 8001ad6:	6878      	ldr	r0, [r7, #4]
 8001ad8:	f7ff fd26 	bl	8001528 <_ZN3NRF9ASSERT_CEEi>

		read_top_of_fifo:
		READ_RX_FIFO(data);
 8001adc:	6839      	ldr	r1, [r7, #0]
 8001ade:	6878      	ldr	r0, [r7, #4]
 8001ae0:	f000 f850 	bl	8001b84 <_ZN3NRF12READ_RX_FIFOEPh>

		uint8_t status,fifo_status;
		R_REGISTER(STATUS_ADDRESS,1,&status);
 8001ae4:	687b      	ldr	r3, [r7, #4]
 8001ae6:	681b      	ldr	r3, [r3, #0]
 8001ae8:	3304      	adds	r3, #4
 8001aea:	681c      	ldr	r4, [r3, #0]
 8001aec:	f107 030b 	add.w	r3, r7, #11
 8001af0:	2201      	movs	r2, #1
 8001af2:	2107      	movs	r1, #7
 8001af4:	6878      	ldr	r0, [r7, #4]
 8001af6:	47a0      	blx	r4
		STD_ITER_DELAY
 8001af8:	2300      	movs	r3, #0
 8001afa:	617b      	str	r3, [r7, #20]
 8001afc:	697b      	ldr	r3, [r7, #20]
 8001afe:	f640 62e1 	movw	r2, #3809	; 0xee1
 8001b02:	4293      	cmp	r3, r2
 8001b04:	dc03      	bgt.n	8001b0e <_ZN3NRF7RECEIVEEPh+0x5a>
 8001b06:	697b      	ldr	r3, [r7, #20]
 8001b08:	3301      	adds	r3, #1
 8001b0a:	617b      	str	r3, [r7, #20]
 8001b0c:	e7f6      	b.n	8001afc <_ZN3NRF7RECEIVEEPh+0x48>

		//com CE=LOW, reseta a flag RX_DR, conforme a product specification
		//if write status in the register, we'd clear any flag, we only "write" 0 in the bits we don't want to change in order to protect they from being changed
		status &= ~(TX_DS_MASK|MAX_RT_MASK);
 8001b0e:	7afb      	ldrb	r3, [r7, #11]
 8001b10:	f023 0330 	bic.w	r3, r3, #48	; 0x30
 8001b14:	b2db      	uxtb	r3, r3
 8001b16:	72fb      	strb	r3, [r7, #11]
		W_REGISTER(STATUS_ADDRESS,1,&status);
 8001b18:	687b      	ldr	r3, [r7, #4]
 8001b1a:	681b      	ldr	r3, [r3, #0]
 8001b1c:	681c      	ldr	r4, [r3, #0]
 8001b1e:	f107 030b 	add.w	r3, r7, #11
 8001b22:	2201      	movs	r2, #1
 8001b24:	2107      	movs	r1, #7
 8001b26:	6878      	ldr	r0, [r7, #4]
 8001b28:	47a0      	blx	r4
		STD_ITER_DELAY
 8001b2a:	2300      	movs	r3, #0
 8001b2c:	613b      	str	r3, [r7, #16]
 8001b2e:	693b      	ldr	r3, [r7, #16]
 8001b30:	f640 62e1 	movw	r2, #3809	; 0xee1
 8001b34:	4293      	cmp	r3, r2
 8001b36:	dc03      	bgt.n	8001b40 <_ZN3NRF7RECEIVEEPh+0x8c>
 8001b38:	693b      	ldr	r3, [r7, #16]
 8001b3a:	3301      	adds	r3, #1
 8001b3c:	613b      	str	r3, [r7, #16]
 8001b3e:	e7f6      	b.n	8001b2e <_ZN3NRF7RECEIVEEPh+0x7a>

		//verifica se há outros pacotes para ler, conforme a product specification
		R_REGISTER(FIFO_STATUS_ADDRESS,1,&fifo_status);
 8001b40:	687b      	ldr	r3, [r7, #4]
 8001b42:	681b      	ldr	r3, [r3, #0]
 8001b44:	3304      	adds	r3, #4
 8001b46:	681c      	ldr	r4, [r3, #0]
 8001b48:	f107 030a 	add.w	r3, r7, #10
 8001b4c:	2201      	movs	r2, #1
 8001b4e:	2117      	movs	r1, #23
 8001b50:	6878      	ldr	r0, [r7, #4]
 8001b52:	47a0      	blx	r4
		STD_ITER_DELAY
 8001b54:	2300      	movs	r3, #0
 8001b56:	60fb      	str	r3, [r7, #12]
 8001b58:	68fb      	ldr	r3, [r7, #12]
 8001b5a:	f640 62e1 	movw	r2, #3809	; 0xee1
 8001b5e:	4293      	cmp	r3, r2
 8001b60:	dc03      	bgt.n	8001b6a <_ZN3NRF7RECEIVEEPh+0xb6>
 8001b62:	68fb      	ldr	r3, [r7, #12]
 8001b64:	3301      	adds	r3, #1
 8001b66:	60fb      	str	r3, [r7, #12]
 8001b68:	e7f6      	b.n	8001b58 <_ZN3NRF7RECEIVEEPh+0xa4>
		if((fifo_status & RX_EMPTY_MASK)==0){
 8001b6a:	7abb      	ldrb	r3, [r7, #10]
 8001b6c:	f003 0301 	and.w	r3, r3, #1
 8001b70:	2b00      	cmp	r3, #0
 8001b72:	d100      	bne.n	8001b76 <_ZN3NRF7RECEIVEEPh+0xc2>
			goto read_top_of_fifo;
 8001b74:	e7b2      	b.n	8001adc <_ZN3NRF7RECEIVEEPh+0x28>
		}

		return 1;
 8001b76:	2301      	movs	r3, #1
 8001b78:	e000      	b.n	8001b7c <_ZN3NRF7RECEIVEEPh+0xc8>
	}
	else{
		return 0;
 8001b7a:	2300      	movs	r3, #0
	}
}
 8001b7c:	4618      	mov	r0, r3
 8001b7e:	371c      	adds	r7, #28
 8001b80:	46bd      	mov	sp, r7
 8001b82:	bd90      	pop	{r4, r7, pc}

08001b84 <_ZN3NRF12READ_RX_FIFOEPh>:

//lê a payload no topo da RX_FIFO
//pointer: local aonde a mensagem será gravada
void NRF::READ_RX_FIFO(uint8_t* pointer){
 8001b84:	b590      	push	{r4, r7, lr}
 8001b86:	b089      	sub	sp, #36	; 0x24
 8001b88:	af02      	add	r7, sp, #8
 8001b8a:	6078      	str	r0, [r7, #4]
 8001b8c:	6039      	str	r1, [r7, #0]
	//descobre qual pipe recebeu o pacote
	uint8_t RX_Pipe = GET_PIPE_FOR_READING();
 8001b8e:	6878      	ldr	r0, [r7, #4]
 8001b90:	f000 f832 	bl	8001bf8 <_ZN3NRF20GET_PIPE_FOR_READINGEv>
 8001b94:	4603      	mov	r3, r0
 8001b96:	73fb      	strb	r3, [r7, #15]

	//TODO:fix NRF_R_RX_PAYLOAD()
	//lê o RX_PW_Px correspondente àquela pipe
	uint8_t payload_length;
	R_REGISTER(0x11+RX_Pipe,1,&payload_length);
 8001b98:	687b      	ldr	r3, [r7, #4]
 8001b9a:	681b      	ldr	r3, [r3, #0]
 8001b9c:	3304      	adds	r3, #4
 8001b9e:	681c      	ldr	r4, [r3, #0]
 8001ba0:	7bfb      	ldrb	r3, [r7, #15]
 8001ba2:	3311      	adds	r3, #17
 8001ba4:	b2d9      	uxtb	r1, r3
 8001ba6:	f107 030e 	add.w	r3, r7, #14
 8001baa:	2201      	movs	r2, #1
 8001bac:	6878      	ldr	r0, [r7, #4]
 8001bae:	47a0      	blx	r4
	STD_ITER_DELAY
 8001bb0:	2300      	movs	r3, #0
 8001bb2:	617b      	str	r3, [r7, #20]
 8001bb4:	697b      	ldr	r3, [r7, #20]
 8001bb6:	f640 62e1 	movw	r2, #3809	; 0xee1
 8001bba:	4293      	cmp	r3, r2
 8001bbc:	dc03      	bgt.n	8001bc6 <_ZN3NRF12READ_RX_FIFOEPh+0x42>
 8001bbe:	697b      	ldr	r3, [r7, #20]
 8001bc0:	3301      	adds	r3, #1
 8001bc2:	617b      	str	r3, [r7, #20]
 8001bc4:	e7f6      	b.n	8001bb4 <_ZN3NRF12READ_RX_FIFOEPh+0x30>

	CMD(0x61,payload_length,0x00,pointer);//comando R_RX_PLD
 8001bc6:	687b      	ldr	r3, [r7, #4]
 8001bc8:	f103 00bc 	add.w	r0, r3, #188	; 0xbc
 8001bcc:	7bba      	ldrb	r2, [r7, #14]
 8001bce:	683b      	ldr	r3, [r7, #0]
 8001bd0:	9300      	str	r3, [sp, #0]
 8001bd2:	2300      	movs	r3, #0
 8001bd4:	2161      	movs	r1, #97	; 0x61
 8001bd6:	f7fe ffb3 	bl	8000b40 <_ZN3SPI3CMDEhhPhS0_>
	STD_ITER_DELAY
 8001bda:	2300      	movs	r3, #0
 8001bdc:	613b      	str	r3, [r7, #16]
 8001bde:	693b      	ldr	r3, [r7, #16]
 8001be0:	f640 62e1 	movw	r2, #3809	; 0xee1
 8001be4:	4293      	cmp	r3, r2
 8001be6:	dc03      	bgt.n	8001bf0 <_ZN3NRF12READ_RX_FIFOEPh+0x6c>
 8001be8:	693b      	ldr	r3, [r7, #16]
 8001bea:	3301      	adds	r3, #1
 8001bec:	613b      	str	r3, [r7, #16]
 8001bee:	e7f6      	b.n	8001bde <_ZN3NRF12READ_RX_FIFOEPh+0x5a>

	return;
 8001bf0:	bf00      	nop
}
 8001bf2:	371c      	adds	r7, #28
 8001bf4:	46bd      	mov	sp, r7
 8001bf6:	bd90      	pop	{r4, r7, pc}

08001bf8 <_ZN3NRF20GET_PIPE_FOR_READINGEv>:

//retorna a pipe que recebeu o pacote disponível para leitura
uint8_t NRF::GET_PIPE_FOR_READING(void){
 8001bf8:	b580      	push	{r7, lr}
 8001bfa:	b084      	sub	sp, #16
 8001bfc:	af00      	add	r7, sp, #0
 8001bfe:	6078      	str	r0, [r7, #4]
	uint8_t status = NOP();
 8001c00:	687b      	ldr	r3, [r7, #4]
 8001c02:	33bc      	adds	r3, #188	; 0xbc
 8001c04:	4618      	mov	r0, r3
 8001c06:	f7ff f925 	bl	8000e54 <_ZN3SPI3NOPEv>
 8001c0a:	4603      	mov	r3, r0
 8001c0c:	73fb      	strb	r3, [r7, #15]
	uint8_t pipe_number = (status && RX_P_NO_MASK) >> 1;
 8001c0e:	2300      	movs	r3, #0
 8001c10:	73bb      	strb	r3, [r7, #14]
	return  pipe_number;
 8001c12:	7bbb      	ldrb	r3, [r7, #14]
}
 8001c14:	4618      	mov	r0, r3
 8001c16:	3710      	adds	r7, #16
 8001c18:	46bd      	mov	sp, r7
 8001c1a:	bd80      	pop	{r7, pc}

08001c1c <_ZN3NRF12TX_configureEv>:

	return;
}

//produz uma  struct de  configuração com "valores default"
void NRF::TX_configure(){
 8001c1c:	b580      	push	{r7, lr}
 8001c1e:	b090      	sub	sp, #64	; 0x40
 8001c20:	af00      	add	r7, sp, #0
 8001c22:	6078      	str	r0, [r7, #4]
	uint8_t ReceiverAddress[]={0xe7,0xe7,0xe7,0xe7,0xe7};
 8001c24:	4a14      	ldr	r2, [pc, #80]	; (8001c78 <_ZN3NRF12TX_configureEv+0x5c>)
 8001c26:	f107 0338 	add.w	r3, r7, #56	; 0x38
 8001c2a:	6810      	ldr	r0, [r2, #0]
 8001c2c:	6018      	str	r0, [r3, #0]
 8001c2e:	7912      	ldrb	r2, [r2, #4]
 8001c30:	711a      	strb	r2, [r3, #4]

	config_Struct configuration;
	configuration.AW_x_bytes=AW_5_bytes;
 8001c32:	2303      	movs	r3, #3
 8001c34:	72fb      	strb	r3, [r7, #11]
	configuration.RF_SETUP=RF_SETUP_Data_Rate_2Mbps;
 8001c36:	2308      	movs	r3, #8
 8001c38:	737b      	strb	r3, [r7, #13]
	configuration.channel=0x02;
 8001c3a:	2302      	movs	r3, #2
 8001c3c:	723b      	strb	r3, [r7, #8]
	configuration.TX_ADDR=ReceiverAddress;
 8001c3e:	f107 0338 	add.w	r3, r7, #56	; 0x38
 8001c42:	613b      	str	r3, [r7, #16]
	configuration.payload_width_pipe_0=5;
 8001c44:	2305      	movs	r3, #5
 8001c46:	753b      	strb	r3, [r7, #20]

	#ifdef USE_AUTOACK
		configuration.ENAA_Px=ENAA_P0;
 8001c48:	2301      	movs	r3, #1
 8001c4a:	727b      	strb	r3, [r7, #9]
		configuration.ERX_Px=ERX_P0;
 8001c4c:	2301      	movs	r3, #1
 8001c4e:	72bb      	strb	r3, [r7, #10]
		configuration.RETR_ARC_and_ARD=RETR_ARC_15_RETRANSMIT|RETR_ARD_wait_4000_us;//até 15 tentativas, 1 a cada 4ms
 8001c50:	23ff      	movs	r3, #255	; 0xff
 8001c52:	733b      	strb	r3, [r7, #12]
		configuration.RX_ADDR_P0=configuration.TX_ADDR;//para permitir AutoACK
 8001c54:	693b      	ldr	r3, [r7, #16]
 8001c56:	61fb      	str	r3, [r7, #28]
		configuration.FEATURE=FEATURE_EN_ACK_PAY|FEATURE_EN_DPL;
 8001c58:	2306      	movs	r3, #6
 8001c5a:	f887 3035 	strb.w	r3, [r7, #53]	; 0x35
		configuration.DYNPD  =DYNPD_DPL_P0;
 8001c5e:	2301      	movs	r3, #1
 8001c60:	f887 3034 	strb.w	r3, [r7, #52]	; 0x34
		configuration.ENAA_Px=ENAA_Disable_All_Pipes;
		configuration.ERX_Px=ERX_Disable_All_Pipes;
		configuration.RETR_ARC_and_ARD=RETR_ARC_DISABLE_RETRANSMIT;
	#endif

	TX_configure(&configuration);
 8001c64:	f107 0308 	add.w	r3, r7, #8
 8001c68:	4619      	mov	r1, r3
 8001c6a:	6878      	ldr	r0, [r7, #4]
 8001c6c:	f000 f806 	bl	8001c7c <_ZN3NRF12TX_configureEP13config_Struct>

	return;
 8001c70:	bf00      	nop
}
 8001c72:	3740      	adds	r7, #64	; 0x40
 8001c74:	46bd      	mov	sp, r7
 8001c76:	bd80      	pop	{r7, pc}
 8001c78:	08002f74 	.word	0x08002f74

08001c7c <_ZN3NRF12TX_configureEP13config_Struct>:

//recebe uma struct de configuração do modo de transmissão e altera os valores do registradores correspondentes
void NRF::TX_configure(config_Struct* pointer){
 8001c7c:	b590      	push	{r4, r7, lr}
 8001c7e:	b087      	sub	sp, #28
 8001c80:	af00      	add	r7, sp, #0
 8001c82:	6078      	str	r0, [r7, #4]
 8001c84:	6039      	str	r1, [r7, #0]
	stdbyI_to_TX(pointer->channel);//writes CONFIG and RF_CH registers
 8001c86:	683b      	ldr	r3, [r7, #0]
 8001c88:	781b      	ldrb	r3, [r3, #0]
 8001c8a:	4619      	mov	r1, r3
 8001c8c:	6878      	ldr	r0, [r7, #4]
 8001c8e:	f7ff fcab 	bl	80015e8 <_ZN3NRF12stdbyI_to_TXEh>

	EN_AA_setup(pointer->ENAA_Px);
 8001c92:	683b      	ldr	r3, [r7, #0]
 8001c94:	785b      	ldrb	r3, [r3, #1]
 8001c96:	4619      	mov	r1, r3
 8001c98:	6878      	ldr	r0, [r7, #4]
 8001c9a:	f7ff fcd3 	bl	8001644 <_ZN3NRF11EN_AA_setupEh>

	EN_RXADDR_setup(pointer->ERX_Px);
 8001c9e:	683b      	ldr	r3, [r7, #0]
 8001ca0:	789b      	ldrb	r3, [r3, #2]
 8001ca2:	4619      	mov	r1, r3
 8001ca4:	6878      	ldr	r0, [r7, #4]
 8001ca6:	f7ff fce5 	bl	8001674 <_ZN3NRF15EN_RXADDR_setupEh>

	SETUP_AW_setup(pointer->AW_x_bytes);
 8001caa:	683b      	ldr	r3, [r7, #0]
 8001cac:	78db      	ldrb	r3, [r3, #3]
 8001cae:	4619      	mov	r1, r3
 8001cb0:	6878      	ldr	r0, [r7, #4]
 8001cb2:	f7ff fcf7 	bl	80016a4 <_ZN3NRF14SETUP_AW_setupEh>

	SETUP_RETR_setup(pointer->RETR_ARC_and_ARD);
 8001cb6:	683b      	ldr	r3, [r7, #0]
 8001cb8:	791b      	ldrb	r3, [r3, #4]
 8001cba:	4619      	mov	r1, r3
 8001cbc:	6878      	ldr	r0, [r7, #4]
 8001cbe:	f7ff fd09 	bl	80016d4 <_ZN3NRF16SETUP_RETR_setupEh>

	RF_SETUP_setup(pointer->RF_SETUP);
 8001cc2:	683b      	ldr	r3, [r7, #0]
 8001cc4:	795b      	ldrb	r3, [r3, #5]
 8001cc6:	4619      	mov	r1, r3
 8001cc8:	6878      	ldr	r0, [r7, #4]
 8001cca:	f7ff fd33 	bl	8001734 <_ZN3NRF14RF_SETUP_setupEh>

	TX_ADDR_setup(pointer->TX_ADDR);
 8001cce:	683b      	ldr	r3, [r7, #0]
 8001cd0:	689b      	ldr	r3, [r3, #8]
 8001cd2:	4619      	mov	r1, r3
 8001cd4:	6878      	ldr	r0, [r7, #4]
 8001cd6:	f000 f875 	bl	8001dc4 <_ZN3NRF13TX_ADDR_setupEPh>

	//TODO: fazer a verificação de quais as pipes precisam ser configuradas e quais as payloads de cada uma
	uint8_t* payload_width_pointer = &(pointer->payload_width_pipe_0);
 8001cda:	683b      	ldr	r3, [r7, #0]
 8001cdc:	330c      	adds	r3, #12
 8001cde:	617b      	str	r3, [r7, #20]
	uint8_t i;
	for(i=RX_Pipe_0;i<=RX_Pipe_5;i++){
 8001ce0:	2300      	movs	r3, #0
 8001ce2:	74fb      	strb	r3, [r7, #19]
 8001ce4:	7cfb      	ldrb	r3, [r7, #19]
 8001ce6:	2b05      	cmp	r3, #5
 8001ce8:	d817      	bhi.n	8001d1a <_ZN3NRF12TX_configureEP13config_Struct+0x9e>
		if((pointer->ERX_Px) & (1 << i)){//verifica se a pipe i está habilitada
 8001cea:	683b      	ldr	r3, [r7, #0]
 8001cec:	789b      	ldrb	r3, [r3, #2]
 8001cee:	461a      	mov	r2, r3
 8001cf0:	7cfb      	ldrb	r3, [r7, #19]
 8001cf2:	fa42 f303 	asr.w	r3, r2, r3
 8001cf6:	f003 0301 	and.w	r3, r3, #1
 8001cfa:	2b00      	cmp	r3, #0
 8001cfc:	d006      	beq.n	8001d0c <_ZN3NRF12TX_configureEP13config_Struct+0x90>
			RX_PW_Px_setup(i, *payload_width_pointer);//configura o tamanho da payload da pipe i
 8001cfe:	697b      	ldr	r3, [r7, #20]
 8001d00:	781a      	ldrb	r2, [r3, #0]
 8001d02:	7cfb      	ldrb	r3, [r7, #19]
 8001d04:	4619      	mov	r1, r3
 8001d06:	6878      	ldr	r0, [r7, #4]
 8001d08:	f7ff fdb0 	bl	800186c <_ZN3NRF14RX_PW_Px_setupEhh>
		}
		payload_width_pointer++;//passa a apontar para a próxima variável payload_width_pipe_x da struct
 8001d0c:	697b      	ldr	r3, [r7, #20]
 8001d0e:	3301      	adds	r3, #1
 8001d10:	617b      	str	r3, [r7, #20]
	TX_ADDR_setup(pointer->TX_ADDR);

	//TODO: fazer a verificação de quais as pipes precisam ser configuradas e quais as payloads de cada uma
	uint8_t* payload_width_pointer = &(pointer->payload_width_pipe_0);
	uint8_t i;
	for(i=RX_Pipe_0;i<=RX_Pipe_5;i++){
 8001d12:	7cfb      	ldrb	r3, [r7, #19]
 8001d14:	3301      	adds	r3, #1
 8001d16:	74fb      	strb	r3, [r7, #19]
 8001d18:	e7e4      	b.n	8001ce4 <_ZN3NRF12TX_configureEP13config_Struct+0x68>
			RX_PW_Px_setup(i, *payload_width_pointer);//configura o tamanho da payload da pipe i
		}
		payload_width_pointer++;//passa a apontar para a próxima variável payload_width_pipe_x da struct
	}

	uint8_t** RX_ADDR_Px_pointer = &(pointer->RX_ADDR_P0);//RX_ADDR_Px_pointer é ponteiro para os RX_ADDR_Px
 8001d1a:	683b      	ldr	r3, [r7, #0]
 8001d1c:	3314      	adds	r3, #20
 8001d1e:	60fb      	str	r3, [r7, #12]

	//TODO: melhorar a implementação, para só escrever os registradores que realmente precisam ser configurados
	for(i=RX_Pipe_0;i<=RX_Pipe_5;i++){
 8001d20:	2300      	movs	r3, #0
 8001d22:	74fb      	strb	r3, [r7, #19]
 8001d24:	7cfb      	ldrb	r3, [r7, #19]
 8001d26:	2b05      	cmp	r3, #5
 8001d28:	d817      	bhi.n	8001d5a <_ZN3NRF12TX_configureEP13config_Struct+0xde>
		if((pointer->ERX_Px) & (1 << i)){//verifica se a pipe i está habilitada
 8001d2a:	683b      	ldr	r3, [r7, #0]
 8001d2c:	789b      	ldrb	r3, [r3, #2]
 8001d2e:	461a      	mov	r2, r3
 8001d30:	7cfb      	ldrb	r3, [r7, #19]
 8001d32:	fa42 f303 	asr.w	r3, r2, r3
 8001d36:	f003 0301 	and.w	r3, r3, #1
 8001d3a:	2b00      	cmp	r3, #0
 8001d3c:	d006      	beq.n	8001d4c <_ZN3NRF12TX_configureEP13config_Struct+0xd0>
			RX_ADDR_Px_setup(i,*RX_ADDR_Px_pointer);//configura o endereço da pipe i
 8001d3e:	68fb      	ldr	r3, [r7, #12]
 8001d40:	681a      	ldr	r2, [r3, #0]
 8001d42:	7cfb      	ldrb	r3, [r7, #19]
 8001d44:	4619      	mov	r1, r3
 8001d46:	6878      	ldr	r0, [r7, #4]
 8001d48:	f7ff fd0c 	bl	8001764 <_ZN3NRF16RX_ADDR_Px_setupEhPh>
		}
		RX_ADDR_Px_pointer++;//passa a apontar para o próximo RX_ADDR_Px da struct
 8001d4c:	68fb      	ldr	r3, [r7, #12]
 8001d4e:	3304      	adds	r3, #4
 8001d50:	60fb      	str	r3, [r7, #12]
	}

	uint8_t** RX_ADDR_Px_pointer = &(pointer->RX_ADDR_P0);//RX_ADDR_Px_pointer é ponteiro para os RX_ADDR_Px

	//TODO: melhorar a implementação, para só escrever os registradores que realmente precisam ser configurados
	for(i=RX_Pipe_0;i<=RX_Pipe_5;i++){
 8001d52:	7cfb      	ldrb	r3, [r7, #19]
 8001d54:	3301      	adds	r3, #1
 8001d56:	74fb      	strb	r3, [r7, #19]
 8001d58:	e7e4      	b.n	8001d24 <_ZN3NRF12TX_configureEP13config_Struct+0xa8>
		}
		RX_ADDR_Px_pointer++;//passa a apontar para o próximo RX_ADDR_Px da struct
	}

	//tenta escrever no registrador FEATURE, se falhar, precisa ser ativado
	uint8_t feat=0b111;
 8001d5a:	2307      	movs	r3, #7
 8001d5c:	72fb      	strb	r3, [r7, #11]
	W_REGISTER(0x1d,1,&feat);
 8001d5e:	687b      	ldr	r3, [r7, #4]
 8001d60:	681b      	ldr	r3, [r3, #0]
 8001d62:	681c      	ldr	r4, [r3, #0]
 8001d64:	f107 030b 	add.w	r3, r7, #11
 8001d68:	2201      	movs	r2, #1
 8001d6a:	211d      	movs	r1, #29
 8001d6c:	6878      	ldr	r0, [r7, #4]
 8001d6e:	47a0      	blx	r4
	Delay_ms(1);
 8001d70:	2001      	movs	r0, #1
 8001d72:	f000 f873 	bl	8001e5c <_Z8Delay_msm>
	R_REGISTER(0x1d,1,&feat);
 8001d76:	687b      	ldr	r3, [r7, #4]
 8001d78:	681b      	ldr	r3, [r3, #0]
 8001d7a:	3304      	adds	r3, #4
 8001d7c:	681c      	ldr	r4, [r3, #0]
 8001d7e:	f107 030b 	add.w	r3, r7, #11
 8001d82:	2201      	movs	r2, #1
 8001d84:	211d      	movs	r1, #29
 8001d86:	6878      	ldr	r0, [r7, #4]
 8001d88:	47a0      	blx	r4
	Delay_ms(1);
 8001d8a:	2001      	movs	r0, #1
 8001d8c:	f000 f866 	bl	8001e5c <_Z8Delay_msm>
	if(!feat){//se feat permanece nulo
 8001d90:	7afb      	ldrb	r3, [r7, #11]
 8001d92:	2b00      	cmp	r3, #0
 8001d94:	d104      	bne.n	8001da0 <_ZN3NRF12TX_configureEP13config_Struct+0x124>
		ACTIVATE();
 8001d96:	687b      	ldr	r3, [r7, #4]
 8001d98:	33bc      	adds	r3, #188	; 0xbc
 8001d9a:	4618      	mov	r0, r3
 8001d9c:	f7fe ffe2 	bl	8000d64 <_ZN3SPI8ACTIVATEEv>
	}

	FEATURE_setup(pointer->FEATURE);
 8001da0:	683b      	ldr	r3, [r7, #0]
 8001da2:	f893 302d 	ldrb.w	r3, [r3, #45]	; 0x2d
 8001da6:	4619      	mov	r1, r3
 8001da8:	6878      	ldr	r0, [r7, #4]
 8001daa:	f7ff fd7b 	bl	80018a4 <_ZN3NRF13FEATURE_setupEh>
	DYNPD_setup(pointer->DYNPD);
 8001dae:	683b      	ldr	r3, [r7, #0]
 8001db0:	f893 302c 	ldrb.w	r3, [r3, #44]	; 0x2c
 8001db4:	4619      	mov	r1, r3
 8001db6:	6878      	ldr	r0, [r7, #4]
 8001db8:	f7ff fd8c 	bl	80018d4 <_ZN3NRF11DYNPD_setupEh>

	return;
 8001dbc:	bf00      	nop
}
 8001dbe:	371c      	adds	r7, #28
 8001dc0:	46bd      	mov	sp, r7
 8001dc2:	bd90      	pop	{r4, r7, pc}

08001dc4 <_ZN3NRF13TX_ADDR_setupEPh>:

//TODO: melhorar a implementação, para só escrever os registradores que realmente precisam ser configurados
void NRF::TX_ADDR_setup(uint8_t* pointer){
 8001dc4:	b590      	push	{r4, r7, lr}
 8001dc6:	b083      	sub	sp, #12
 8001dc8:	af00      	add	r7, sp, #0
 8001dca:	6078      	str	r0, [r7, #4]
 8001dcc:	6039      	str	r1, [r7, #0]
	W_REGISTER(0x10,5,pointer);
 8001dce:	687b      	ldr	r3, [r7, #4]
 8001dd0:	681b      	ldr	r3, [r3, #0]
 8001dd2:	681c      	ldr	r4, [r3, #0]
 8001dd4:	683b      	ldr	r3, [r7, #0]
 8001dd6:	2205      	movs	r2, #5
 8001dd8:	2110      	movs	r1, #16
 8001dda:	6878      	ldr	r0, [r7, #4]
 8001ddc:	47a0      	blx	r4
	Delay_ms(1);
 8001dde:	2001      	movs	r0, #1
 8001de0:	f000 f83c 	bl	8001e5c <_Z8Delay_msm>
	
	return;
 8001de4:	bf00      	nop
}
 8001de6:	370c      	adds	r7, #12
 8001de8:	46bd      	mov	sp, r7
 8001dea:	bd90      	pop	{r4, r7, pc}

08001dec <_Z21TimingDelay_Decrementv>:
#include "CONFIG.h"

static __IO uint32_t TimingDelay;//número de us que faltam

void TimingDelay_Decrement(void)
{
 8001dec:	b480      	push	{r7}
 8001dee:	af00      	add	r7, sp, #0
  if (TimingDelay != 0x00)
 8001df0:	4b09      	ldr	r3, [pc, #36]	; (8001e18 <_Z21TimingDelay_Decrementv+0x2c>)
 8001df2:	681b      	ldr	r3, [r3, #0]
 8001df4:	2b00      	cmp	r3, #0
 8001df6:	bf14      	ite	ne
 8001df8:	2301      	movne	r3, #1
 8001dfa:	2300      	moveq	r3, #0
 8001dfc:	b2db      	uxtb	r3, r3
 8001dfe:	2b00      	cmp	r3, #0
 8001e00:	d004      	beq.n	8001e0c <_Z21TimingDelay_Decrementv+0x20>
  {
    TimingDelay--;
 8001e02:	4b05      	ldr	r3, [pc, #20]	; (8001e18 <_Z21TimingDelay_Decrementv+0x2c>)
 8001e04:	681b      	ldr	r3, [r3, #0]
 8001e06:	3b01      	subs	r3, #1
 8001e08:	4a03      	ldr	r2, [pc, #12]	; (8001e18 <_Z21TimingDelay_Decrementv+0x2c>)
 8001e0a:	6013      	str	r3, [r2, #0]

  }
}
 8001e0c:	bf00      	nop
 8001e0e:	46bd      	mov	sp, r7
 8001e10:	f85d 7b04 	ldr.w	r7, [sp], #4
 8001e14:	4770      	bx	lr
 8001e16:	bf00      	nop
 8001e18:	200000d0 	.word	0x200000d0

08001e1c <SysTick_Handler>:
 * para que seja tratado como código C, gere  uma função de mesmo nome, etc.
 * e  por que dava errado se adicionasse no stm32f4xx_it.h
 */
extern "C"{
	void SysTick_Handler(void)
	{
 8001e1c:	b580      	push	{r7, lr}
 8001e1e:	af00      	add	r7, sp, #0
		 TimingDelay_Decrement();
 8001e20:	f7ff ffe4 	bl	8001dec <_Z21TimingDelay_Decrementv>
	}
 8001e24:	bf00      	nop
 8001e26:	bd80      	pop	{r7, pc}

08001e28 <_Z8Delay_usm>:
}//fim do extern "C" {}

void Delay_us(uint32_t time_us)
{
 8001e28:	b480      	push	{r7}
 8001e2a:	b083      	sub	sp, #12
 8001e2c:	af00      	add	r7, sp, #0
 8001e2e:	6078      	str	r0, [r7, #4]
  TimingDelay = time_us;
 8001e30:	4a09      	ldr	r2, [pc, #36]	; (8001e58 <_Z8Delay_usm+0x30>)
 8001e32:	687b      	ldr	r3, [r7, #4]
 8001e34:	6013      	str	r3, [r2, #0]
  while(TimingDelay != 0);
 8001e36:	4b08      	ldr	r3, [pc, #32]	; (8001e58 <_Z8Delay_usm+0x30>)
 8001e38:	681b      	ldr	r3, [r3, #0]
 8001e3a:	2b00      	cmp	r3, #0
 8001e3c:	bf14      	ite	ne
 8001e3e:	2301      	movne	r3, #1
 8001e40:	2300      	moveq	r3, #0
 8001e42:	b2db      	uxtb	r3, r3
 8001e44:	2b00      	cmp	r3, #0
 8001e46:	d000      	beq.n	8001e4a <_Z8Delay_usm+0x22>
 8001e48:	e7f5      	b.n	8001e36 <_Z8Delay_usm+0xe>
}
 8001e4a:	bf00      	nop
 8001e4c:	370c      	adds	r7, #12
 8001e4e:	46bd      	mov	sp, r7
 8001e50:	f85d 7b04 	ldr.w	r7, [sp], #4
 8001e54:	4770      	bx	lr
 8001e56:	bf00      	nop
 8001e58:	200000d0 	.word	0x200000d0

08001e5c <_Z8Delay_msm>:

void Delay_ms(uint32_t time_ms)
{
 8001e5c:	b580      	push	{r7, lr}
 8001e5e:	b084      	sub	sp, #16
 8001e60:	af00      	add	r7, sp, #0
 8001e62:	6078      	str	r0, [r7, #4]
  uint32_t us;
  us=time_ms*1000;
 8001e64:	687b      	ldr	r3, [r7, #4]
 8001e66:	f44f 727a 	mov.w	r2, #1000	; 0x3e8
 8001e6a:	fb02 f303 	mul.w	r3, r2, r3
 8001e6e:	60fb      	str	r3, [r7, #12]
  Delay_us(us);
 8001e70:	68f8      	ldr	r0, [r7, #12]
 8001e72:	f7ff ffd9 	bl	8001e28 <_Z8Delay_usm>
  /*TimingDelay = time;
  while(TimingDelay != 0);*/
}
 8001e76:	bf00      	nop
 8001e78:	3710      	adds	r7, #16
 8001e7a:	46bd      	mov	sp, r7
 8001e7c:	bd80      	pop	{r7, pc}
 8001e7e:	bf00      	nop

08001e80 <_Z7Delay_sh>:

void Delay_s(unsigned char s)
{
 8001e80:	b580      	push	{r7, lr}
 8001e82:	b084      	sub	sp, #16
 8001e84:	af00      	add	r7, sp, #0
 8001e86:	4603      	mov	r3, r0
 8001e88:	71fb      	strb	r3, [r7, #7]
  uint32_t ms;
  ms=s*1000;
 8001e8a:	79fb      	ldrb	r3, [r7, #7]
 8001e8c:	f44f 727a 	mov.w	r2, #1000	; 0x3e8
 8001e90:	fb02 f303 	mul.w	r3, r2, r3
 8001e94:	60fb      	str	r3, [r7, #12]
  Delay_ms(ms);
 8001e96:	68f8      	ldr	r0, [r7, #12]
 8001e98:	f7ff ffe0 	bl	8001e5c <_Z8Delay_msm>
}
 8001e9c:	bf00      	nop
 8001e9e:	3710      	adds	r7, #16
 8001ea0:	46bd      	mov	sp, r7
 8001ea2:	bd80      	pop	{r7, pc}

08001ea4 <_Z14GPIO_Clock_CmdP12GPIO_TypeDef15FunctionalState>:
}

/*
 * Enables or disables the peripheral clock associated with GPIOx
 */
int GPIO_Clock_Cmd(GPIO_TypeDef* GPIOx, FunctionalState STATE){
 8001ea4:	b580      	push	{r7, lr}
 8001ea6:	b082      	sub	sp, #8
 8001ea8:	af00      	add	r7, sp, #0
 8001eaa:	6078      	str	r0, [r7, #4]
 8001eac:	460b      	mov	r3, r1
 8001eae:	70fb      	strb	r3, [r7, #3]
	if(!IS_GPIO_ALL_PERIPH(GPIOx)){
 8001eb0:	687b      	ldr	r3, [r7, #4]
 8001eb2:	4a42      	ldr	r2, [pc, #264]	; (8001fbc <_Z14GPIO_Clock_CmdP12GPIO_TypeDef15FunctionalState+0x118>)
 8001eb4:	4293      	cmp	r3, r2
 8001eb6:	d022      	beq.n	8001efe <_Z14GPIO_Clock_CmdP12GPIO_TypeDef15FunctionalState+0x5a>
 8001eb8:	687b      	ldr	r3, [r7, #4]
 8001eba:	4a41      	ldr	r2, [pc, #260]	; (8001fc0 <_Z14GPIO_Clock_CmdP12GPIO_TypeDef15FunctionalState+0x11c>)
 8001ebc:	4293      	cmp	r3, r2
 8001ebe:	d01e      	beq.n	8001efe <_Z14GPIO_Clock_CmdP12GPIO_TypeDef15FunctionalState+0x5a>
 8001ec0:	687b      	ldr	r3, [r7, #4]
 8001ec2:	4a40      	ldr	r2, [pc, #256]	; (8001fc4 <_Z14GPIO_Clock_CmdP12GPIO_TypeDef15FunctionalState+0x120>)
 8001ec4:	4293      	cmp	r3, r2
 8001ec6:	d01a      	beq.n	8001efe <_Z14GPIO_Clock_CmdP12GPIO_TypeDef15FunctionalState+0x5a>
 8001ec8:	687b      	ldr	r3, [r7, #4]
 8001eca:	4a3f      	ldr	r2, [pc, #252]	; (8001fc8 <_Z14GPIO_Clock_CmdP12GPIO_TypeDef15FunctionalState+0x124>)
 8001ecc:	4293      	cmp	r3, r2
 8001ece:	d016      	beq.n	8001efe <_Z14GPIO_Clock_CmdP12GPIO_TypeDef15FunctionalState+0x5a>
 8001ed0:	687b      	ldr	r3, [r7, #4]
 8001ed2:	4a3e      	ldr	r2, [pc, #248]	; (8001fcc <_Z14GPIO_Clock_CmdP12GPIO_TypeDef15FunctionalState+0x128>)
 8001ed4:	4293      	cmp	r3, r2
 8001ed6:	d012      	beq.n	8001efe <_Z14GPIO_Clock_CmdP12GPIO_TypeDef15FunctionalState+0x5a>
 8001ed8:	687b      	ldr	r3, [r7, #4]
 8001eda:	4a3d      	ldr	r2, [pc, #244]	; (8001fd0 <_Z14GPIO_Clock_CmdP12GPIO_TypeDef15FunctionalState+0x12c>)
 8001edc:	4293      	cmp	r3, r2
 8001ede:	d00e      	beq.n	8001efe <_Z14GPIO_Clock_CmdP12GPIO_TypeDef15FunctionalState+0x5a>
 8001ee0:	687b      	ldr	r3, [r7, #4]
 8001ee2:	4a3c      	ldr	r2, [pc, #240]	; (8001fd4 <_Z14GPIO_Clock_CmdP12GPIO_TypeDef15FunctionalState+0x130>)
 8001ee4:	4293      	cmp	r3, r2
 8001ee6:	d00a      	beq.n	8001efe <_Z14GPIO_Clock_CmdP12GPIO_TypeDef15FunctionalState+0x5a>
 8001ee8:	687b      	ldr	r3, [r7, #4]
 8001eea:	4a3b      	ldr	r2, [pc, #236]	; (8001fd8 <_Z14GPIO_Clock_CmdP12GPIO_TypeDef15FunctionalState+0x134>)
 8001eec:	4293      	cmp	r3, r2
 8001eee:	d006      	beq.n	8001efe <_Z14GPIO_Clock_CmdP12GPIO_TypeDef15FunctionalState+0x5a>
 8001ef0:	687b      	ldr	r3, [r7, #4]
 8001ef2:	4a3a      	ldr	r2, [pc, #232]	; (8001fdc <_Z14GPIO_Clock_CmdP12GPIO_TypeDef15FunctionalState+0x138>)
 8001ef4:	4293      	cmp	r3, r2
 8001ef6:	d002      	beq.n	8001efe <_Z14GPIO_Clock_CmdP12GPIO_TypeDef15FunctionalState+0x5a>
		return -1;
 8001ef8:	f04f 33ff 	mov.w	r3, #4294967295
 8001efc:	e05a      	b.n	8001fb4 <_Z14GPIO_Clock_CmdP12GPIO_TypeDef15FunctionalState+0x110>
	}

	//ENABLE the clock of GPIOx
	if(GPIOx == GPIOA){
 8001efe:	687b      	ldr	r3, [r7, #4]
 8001f00:	4a2e      	ldr	r2, [pc, #184]	; (8001fbc <_Z14GPIO_Clock_CmdP12GPIO_TypeDef15FunctionalState+0x118>)
 8001f02:	4293      	cmp	r3, r2
 8001f04:	d105      	bne.n	8001f12 <_Z14GPIO_Clock_CmdP12GPIO_TypeDef15FunctionalState+0x6e>
		RCC_AHB1PeriphClockCmd(RCC_AHB1Periph_GPIOA, STATE);
 8001f06:	78fb      	ldrb	r3, [r7, #3]
 8001f08:	4619      	mov	r1, r3
 8001f0a:	2001      	movs	r0, #1
 8001f0c:	f000 fc34 	bl	8002778 <RCC_AHB1PeriphClockCmd>
 8001f10:	e04f      	b.n	8001fb2 <_Z14GPIO_Clock_CmdP12GPIO_TypeDef15FunctionalState+0x10e>
	}else if(GPIOx == GPIOB){
 8001f12:	687b      	ldr	r3, [r7, #4]
 8001f14:	4a2a      	ldr	r2, [pc, #168]	; (8001fc0 <_Z14GPIO_Clock_CmdP12GPIO_TypeDef15FunctionalState+0x11c>)
 8001f16:	4293      	cmp	r3, r2
 8001f18:	d105      	bne.n	8001f26 <_Z14GPIO_Clock_CmdP12GPIO_TypeDef15FunctionalState+0x82>
		RCC_AHB1PeriphClockCmd(RCC_AHB1Periph_GPIOB, STATE);
 8001f1a:	78fb      	ldrb	r3, [r7, #3]
 8001f1c:	4619      	mov	r1, r3
 8001f1e:	2002      	movs	r0, #2
 8001f20:	f000 fc2a 	bl	8002778 <RCC_AHB1PeriphClockCmd>
 8001f24:	e045      	b.n	8001fb2 <_Z14GPIO_Clock_CmdP12GPIO_TypeDef15FunctionalState+0x10e>
	}else if(GPIOx == GPIOC){
 8001f26:	687b      	ldr	r3, [r7, #4]
 8001f28:	4a26      	ldr	r2, [pc, #152]	; (8001fc4 <_Z14GPIO_Clock_CmdP12GPIO_TypeDef15FunctionalState+0x120>)
 8001f2a:	4293      	cmp	r3, r2
 8001f2c:	d105      	bne.n	8001f3a <_Z14GPIO_Clock_CmdP12GPIO_TypeDef15FunctionalState+0x96>
		RCC_AHB1PeriphClockCmd(RCC_AHB1Periph_GPIOC, STATE);
 8001f2e:	78fb      	ldrb	r3, [r7, #3]
 8001f30:	4619      	mov	r1, r3
 8001f32:	2004      	movs	r0, #4
 8001f34:	f000 fc20 	bl	8002778 <RCC_AHB1PeriphClockCmd>
 8001f38:	e03b      	b.n	8001fb2 <_Z14GPIO_Clock_CmdP12GPIO_TypeDef15FunctionalState+0x10e>
	}else if(GPIOx == GPIOD){
 8001f3a:	687b      	ldr	r3, [r7, #4]
 8001f3c:	4a22      	ldr	r2, [pc, #136]	; (8001fc8 <_Z14GPIO_Clock_CmdP12GPIO_TypeDef15FunctionalState+0x124>)
 8001f3e:	4293      	cmp	r3, r2
 8001f40:	d105      	bne.n	8001f4e <_Z14GPIO_Clock_CmdP12GPIO_TypeDef15FunctionalState+0xaa>
		RCC_AHB1PeriphClockCmd(RCC_AHB1Periph_GPIOD, STATE);
 8001f42:	78fb      	ldrb	r3, [r7, #3]
 8001f44:	4619      	mov	r1, r3
 8001f46:	2008      	movs	r0, #8
 8001f48:	f000 fc16 	bl	8002778 <RCC_AHB1PeriphClockCmd>
 8001f4c:	e031      	b.n	8001fb2 <_Z14GPIO_Clock_CmdP12GPIO_TypeDef15FunctionalState+0x10e>
	}else if(GPIOx == GPIOE){
 8001f4e:	687b      	ldr	r3, [r7, #4]
 8001f50:	4a1e      	ldr	r2, [pc, #120]	; (8001fcc <_Z14GPIO_Clock_CmdP12GPIO_TypeDef15FunctionalState+0x128>)
 8001f52:	4293      	cmp	r3, r2
 8001f54:	d105      	bne.n	8001f62 <_Z14GPIO_Clock_CmdP12GPIO_TypeDef15FunctionalState+0xbe>
		RCC_AHB1PeriphClockCmd(RCC_AHB1Periph_GPIOE, STATE);
 8001f56:	78fb      	ldrb	r3, [r7, #3]
 8001f58:	4619      	mov	r1, r3
 8001f5a:	2010      	movs	r0, #16
 8001f5c:	f000 fc0c 	bl	8002778 <RCC_AHB1PeriphClockCmd>
 8001f60:	e027      	b.n	8001fb2 <_Z14GPIO_Clock_CmdP12GPIO_TypeDef15FunctionalState+0x10e>
	}else if(GPIOx == GPIOF){
 8001f62:	687b      	ldr	r3, [r7, #4]
 8001f64:	4a1a      	ldr	r2, [pc, #104]	; (8001fd0 <_Z14GPIO_Clock_CmdP12GPIO_TypeDef15FunctionalState+0x12c>)
 8001f66:	4293      	cmp	r3, r2
 8001f68:	d105      	bne.n	8001f76 <_Z14GPIO_Clock_CmdP12GPIO_TypeDef15FunctionalState+0xd2>
		RCC_AHB1PeriphClockCmd(RCC_AHB1Periph_GPIOF, STATE);
 8001f6a:	78fb      	ldrb	r3, [r7, #3]
 8001f6c:	4619      	mov	r1, r3
 8001f6e:	2020      	movs	r0, #32
 8001f70:	f000 fc02 	bl	8002778 <RCC_AHB1PeriphClockCmd>
 8001f74:	e01d      	b.n	8001fb2 <_Z14GPIO_Clock_CmdP12GPIO_TypeDef15FunctionalState+0x10e>
	}else if(GPIOx == GPIOG){
 8001f76:	687b      	ldr	r3, [r7, #4]
 8001f78:	4a16      	ldr	r2, [pc, #88]	; (8001fd4 <_Z14GPIO_Clock_CmdP12GPIO_TypeDef15FunctionalState+0x130>)
 8001f7a:	4293      	cmp	r3, r2
 8001f7c:	d105      	bne.n	8001f8a <_Z14GPIO_Clock_CmdP12GPIO_TypeDef15FunctionalState+0xe6>
		RCC_AHB1PeriphClockCmd(RCC_AHB1Periph_GPIOG, STATE);
 8001f7e:	78fb      	ldrb	r3, [r7, #3]
 8001f80:	4619      	mov	r1, r3
 8001f82:	2040      	movs	r0, #64	; 0x40
 8001f84:	f000 fbf8 	bl	8002778 <RCC_AHB1PeriphClockCmd>
 8001f88:	e013      	b.n	8001fb2 <_Z14GPIO_Clock_CmdP12GPIO_TypeDef15FunctionalState+0x10e>
	}else if(GPIOx == GPIOH){
 8001f8a:	687b      	ldr	r3, [r7, #4]
 8001f8c:	4a12      	ldr	r2, [pc, #72]	; (8001fd8 <_Z14GPIO_Clock_CmdP12GPIO_TypeDef15FunctionalState+0x134>)
 8001f8e:	4293      	cmp	r3, r2
 8001f90:	d105      	bne.n	8001f9e <_Z14GPIO_Clock_CmdP12GPIO_TypeDef15FunctionalState+0xfa>
		RCC_AHB1PeriphClockCmd(RCC_AHB1Periph_GPIOH, STATE);
 8001f92:	78fb      	ldrb	r3, [r7, #3]
 8001f94:	4619      	mov	r1, r3
 8001f96:	2080      	movs	r0, #128	; 0x80
 8001f98:	f000 fbee 	bl	8002778 <RCC_AHB1PeriphClockCmd>
 8001f9c:	e009      	b.n	8001fb2 <_Z14GPIO_Clock_CmdP12GPIO_TypeDef15FunctionalState+0x10e>
	}else if(GPIOx == GPIOI){
 8001f9e:	687b      	ldr	r3, [r7, #4]
 8001fa0:	4a0e      	ldr	r2, [pc, #56]	; (8001fdc <_Z14GPIO_Clock_CmdP12GPIO_TypeDef15FunctionalState+0x138>)
 8001fa2:	4293      	cmp	r3, r2
 8001fa4:	d105      	bne.n	8001fb2 <_Z14GPIO_Clock_CmdP12GPIO_TypeDef15FunctionalState+0x10e>
		RCC_AHB1PeriphClockCmd(RCC_AHB1Periph_GPIOI, STATE);
 8001fa6:	78fb      	ldrb	r3, [r7, #3]
 8001fa8:	4619      	mov	r1, r3
 8001faa:	f44f 7080 	mov.w	r0, #256	; 0x100
 8001fae:	f000 fbe3 	bl	8002778 <RCC_AHB1PeriphClockCmd>
	}
	return 0;
 8001fb2:	2300      	movs	r3, #0
}
 8001fb4:	4618      	mov	r0, r3
 8001fb6:	3708      	adds	r7, #8
 8001fb8:	46bd      	mov	sp, r7
 8001fba:	bd80      	pop	{r7, pc}
 8001fbc:	40020000 	.word	0x40020000
 8001fc0:	40020400 	.word	0x40020400
 8001fc4:	40020800 	.word	0x40020800
 8001fc8:	40020c00 	.word	0x40020c00
 8001fcc:	40021000 	.word	0x40021000
 8001fd0:	40021400 	.word	0x40021400
 8001fd4:	40021800 	.word	0x40021800
 8001fd8:	40021c00 	.word	0x40021c00
 8001fdc:	40022000 	.word	0x40022000

08001fe0 <_Z13SPI_Clock_CmdP11SPI_TypeDef15FunctionalState>:

/*
 * Enables or disables the peripheral clock associated with SPIx
 */
int SPI_Clock_Cmd(SPI_TypeDef* SPIx, FunctionalState STATE){
 8001fe0:	b580      	push	{r7, lr}
 8001fe2:	b082      	sub	sp, #8
 8001fe4:	af00      	add	r7, sp, #0
 8001fe6:	6078      	str	r0, [r7, #4]
 8001fe8:	460b      	mov	r3, r1
 8001fea:	70fb      	strb	r3, [r7, #3]
	if(!IS_SPI_ALL_PERIPH(SPIx)){
 8001fec:	687b      	ldr	r3, [r7, #4]
 8001fee:	4a30      	ldr	r2, [pc, #192]	; (80020b0 <_Z13SPI_Clock_CmdP11SPI_TypeDef15FunctionalState+0xd0>)
 8001ff0:	4293      	cmp	r3, r2
 8001ff2:	d016      	beq.n	8002022 <_Z13SPI_Clock_CmdP11SPI_TypeDef15FunctionalState+0x42>
 8001ff4:	687b      	ldr	r3, [r7, #4]
 8001ff6:	4a2f      	ldr	r2, [pc, #188]	; (80020b4 <_Z13SPI_Clock_CmdP11SPI_TypeDef15FunctionalState+0xd4>)
 8001ff8:	4293      	cmp	r3, r2
 8001ffa:	d012      	beq.n	8002022 <_Z13SPI_Clock_CmdP11SPI_TypeDef15FunctionalState+0x42>
 8001ffc:	687b      	ldr	r3, [r7, #4]
 8001ffe:	4a2e      	ldr	r2, [pc, #184]	; (80020b8 <_Z13SPI_Clock_CmdP11SPI_TypeDef15FunctionalState+0xd8>)
 8002000:	4293      	cmp	r3, r2
 8002002:	d00e      	beq.n	8002022 <_Z13SPI_Clock_CmdP11SPI_TypeDef15FunctionalState+0x42>
 8002004:	687b      	ldr	r3, [r7, #4]
 8002006:	4a2d      	ldr	r2, [pc, #180]	; (80020bc <_Z13SPI_Clock_CmdP11SPI_TypeDef15FunctionalState+0xdc>)
 8002008:	4293      	cmp	r3, r2
 800200a:	d00a      	beq.n	8002022 <_Z13SPI_Clock_CmdP11SPI_TypeDef15FunctionalState+0x42>
 800200c:	687b      	ldr	r3, [r7, #4]
 800200e:	4a2c      	ldr	r2, [pc, #176]	; (80020c0 <_Z13SPI_Clock_CmdP11SPI_TypeDef15FunctionalState+0xe0>)
 8002010:	4293      	cmp	r3, r2
 8002012:	d006      	beq.n	8002022 <_Z13SPI_Clock_CmdP11SPI_TypeDef15FunctionalState+0x42>
 8002014:	687b      	ldr	r3, [r7, #4]
 8002016:	4a2b      	ldr	r2, [pc, #172]	; (80020c4 <_Z13SPI_Clock_CmdP11SPI_TypeDef15FunctionalState+0xe4>)
 8002018:	4293      	cmp	r3, r2
 800201a:	d002      	beq.n	8002022 <_Z13SPI_Clock_CmdP11SPI_TypeDef15FunctionalState+0x42>
		return -1;
 800201c:	f04f 33ff 	mov.w	r3, #4294967295
 8002020:	e041      	b.n	80020a6 <_Z13SPI_Clock_CmdP11SPI_TypeDef15FunctionalState+0xc6>
	}

	if(SPIx == SPI1){
 8002022:	687b      	ldr	r3, [r7, #4]
 8002024:	4a22      	ldr	r2, [pc, #136]	; (80020b0 <_Z13SPI_Clock_CmdP11SPI_TypeDef15FunctionalState+0xd0>)
 8002026:	4293      	cmp	r3, r2
 8002028:	d106      	bne.n	8002038 <_Z13SPI_Clock_CmdP11SPI_TypeDef15FunctionalState+0x58>
		RCC_APB2PeriphClockCmd(RCC_APB2Periph_SPI1,STATE);
 800202a:	78fb      	ldrb	r3, [r7, #3]
 800202c:	4619      	mov	r1, r3
 800202e:	f44f 5080 	mov.w	r0, #4096	; 0x1000
 8002032:	f000 fbe1 	bl	80027f8 <RCC_APB2PeriphClockCmd>
 8002036:	e035      	b.n	80020a4 <_Z13SPI_Clock_CmdP11SPI_TypeDef15FunctionalState+0xc4>
	}else if(SPIx == SPI2){
 8002038:	687b      	ldr	r3, [r7, #4]
 800203a:	4a1e      	ldr	r2, [pc, #120]	; (80020b4 <_Z13SPI_Clock_CmdP11SPI_TypeDef15FunctionalState+0xd4>)
 800203c:	4293      	cmp	r3, r2
 800203e:	d106      	bne.n	800204e <_Z13SPI_Clock_CmdP11SPI_TypeDef15FunctionalState+0x6e>
		RCC_APB1PeriphClockCmd(RCC_APB1Periph_SPI2,STATE);
 8002040:	78fb      	ldrb	r3, [r7, #3]
 8002042:	4619      	mov	r1, r3
 8002044:	f44f 4080 	mov.w	r0, #16384	; 0x4000
 8002048:	f000 fbb6 	bl	80027b8 <RCC_APB1PeriphClockCmd>
 800204c:	e02a      	b.n	80020a4 <_Z13SPI_Clock_CmdP11SPI_TypeDef15FunctionalState+0xc4>
	}else if(SPIx == SPI3){
 800204e:	687b      	ldr	r3, [r7, #4]
 8002050:	4a19      	ldr	r2, [pc, #100]	; (80020b8 <_Z13SPI_Clock_CmdP11SPI_TypeDef15FunctionalState+0xd8>)
 8002052:	4293      	cmp	r3, r2
 8002054:	d106      	bne.n	8002064 <_Z13SPI_Clock_CmdP11SPI_TypeDef15FunctionalState+0x84>
		RCC_APB1PeriphClockCmd(RCC_APB1Periph_SPI3,STATE);
 8002056:	78fb      	ldrb	r3, [r7, #3]
 8002058:	4619      	mov	r1, r3
 800205a:	f44f 4000 	mov.w	r0, #32768	; 0x8000
 800205e:	f000 fbab 	bl	80027b8 <RCC_APB1PeriphClockCmd>
 8002062:	e01f      	b.n	80020a4 <_Z13SPI_Clock_CmdP11SPI_TypeDef15FunctionalState+0xc4>
	}else if(SPIx == SPI4){
 8002064:	687b      	ldr	r3, [r7, #4]
 8002066:	4a15      	ldr	r2, [pc, #84]	; (80020bc <_Z13SPI_Clock_CmdP11SPI_TypeDef15FunctionalState+0xdc>)
 8002068:	4293      	cmp	r3, r2
 800206a:	d106      	bne.n	800207a <_Z13SPI_Clock_CmdP11SPI_TypeDef15FunctionalState+0x9a>
		RCC_APB2PeriphClockCmd(RCC_APB2Periph_SPI4,STATE);
 800206c:	78fb      	ldrb	r3, [r7, #3]
 800206e:	4619      	mov	r1, r3
 8002070:	f44f 5000 	mov.w	r0, #8192	; 0x2000
 8002074:	f000 fbc0 	bl	80027f8 <RCC_APB2PeriphClockCmd>
 8002078:	e014      	b.n	80020a4 <_Z13SPI_Clock_CmdP11SPI_TypeDef15FunctionalState+0xc4>
	}else if(SPIx == SPI5){
 800207a:	687b      	ldr	r3, [r7, #4]
 800207c:	4a10      	ldr	r2, [pc, #64]	; (80020c0 <_Z13SPI_Clock_CmdP11SPI_TypeDef15FunctionalState+0xe0>)
 800207e:	4293      	cmp	r3, r2
 8002080:	d106      	bne.n	8002090 <_Z13SPI_Clock_CmdP11SPI_TypeDef15FunctionalState+0xb0>
		RCC_APB2PeriphClockCmd(RCC_APB2Periph_SPI5,STATE);
 8002082:	78fb      	ldrb	r3, [r7, #3]
 8002084:	4619      	mov	r1, r3
 8002086:	f44f 1080 	mov.w	r0, #1048576	; 0x100000
 800208a:	f000 fbb5 	bl	80027f8 <RCC_APB2PeriphClockCmd>
 800208e:	e009      	b.n	80020a4 <_Z13SPI_Clock_CmdP11SPI_TypeDef15FunctionalState+0xc4>
	}else if(SPIx == SPI6){
 8002090:	687b      	ldr	r3, [r7, #4]
 8002092:	4a0c      	ldr	r2, [pc, #48]	; (80020c4 <_Z13SPI_Clock_CmdP11SPI_TypeDef15FunctionalState+0xe4>)
 8002094:	4293      	cmp	r3, r2
 8002096:	d105      	bne.n	80020a4 <_Z13SPI_Clock_CmdP11SPI_TypeDef15FunctionalState+0xc4>
		RCC_APB2PeriphClockCmd(RCC_APB2Periph_SPI6,STATE);
 8002098:	78fb      	ldrb	r3, [r7, #3]
 800209a:	4619      	mov	r1, r3
 800209c:	f44f 1000 	mov.w	r0, #2097152	; 0x200000
 80020a0:	f000 fbaa 	bl	80027f8 <RCC_APB2PeriphClockCmd>
	}

	return 0;
 80020a4:	2300      	movs	r3, #0
}
 80020a6:	4618      	mov	r0, r3
 80020a8:	3708      	adds	r7, #8
 80020aa:	46bd      	mov	sp, r7
 80020ac:	bd80      	pop	{r7, pc}
 80020ae:	bf00      	nop
 80020b0:	40013000 	.word	0x40013000
 80020b4:	40003800 	.word	0x40003800
 80020b8:	40003c00 	.word	0x40003c00
 80020bc:	40013400 	.word	0x40013400
 80020c0:	40015000 	.word	0x40015000
 80020c4:	40015400 	.word	0x40015400

080020c8 <_Z14GPIO_PinSourcet>:

//retorna a constante GPIO_PinSource correspondente ao GPIO_Pin dado
uint16_t GPIO_PinSource(uint16_t GPIO_Pin){
 80020c8:	b480      	push	{r7}
 80020ca:	b083      	sub	sp, #12
 80020cc:	af00      	add	r7, sp, #0
 80020ce:	4603      	mov	r3, r0
 80020d0:	80fb      	strh	r3, [r7, #6]
	if(!IS_GPIO_PIN(GPIO_Pin)){
 80020d2:	88fb      	ldrh	r3, [r7, #6]
 80020d4:	2b00      	cmp	r3, #0
 80020d6:	d102      	bne.n	80020de <_Z14GPIO_PinSourcet+0x16>
		return 0xFFFF;
 80020d8:	f64f 73ff 	movw	r3, #65535	; 0xffff
 80020dc:	e057      	b.n	800218e <_Z14GPIO_PinSourcet+0xc6>
	}

	if(GPIO_Pin == GPIO_Pin_0){
 80020de:	88fb      	ldrh	r3, [r7, #6]
 80020e0:	2b01      	cmp	r3, #1
 80020e2:	d101      	bne.n	80020e8 <_Z14GPIO_PinSourcet+0x20>
		return GPIO_PinSource0;
 80020e4:	2300      	movs	r3, #0
 80020e6:	e052      	b.n	800218e <_Z14GPIO_PinSourcet+0xc6>
	}else if(GPIO_Pin == GPIO_Pin_1){
 80020e8:	88fb      	ldrh	r3, [r7, #6]
 80020ea:	2b02      	cmp	r3, #2
 80020ec:	d101      	bne.n	80020f2 <_Z14GPIO_PinSourcet+0x2a>
		return GPIO_PinSource1;
 80020ee:	2301      	movs	r3, #1
 80020f0:	e04d      	b.n	800218e <_Z14GPIO_PinSourcet+0xc6>
	}else if(GPIO_Pin == GPIO_Pin_2){
 80020f2:	88fb      	ldrh	r3, [r7, #6]
 80020f4:	2b04      	cmp	r3, #4
 80020f6:	d101      	bne.n	80020fc <_Z14GPIO_PinSourcet+0x34>
		return GPIO_PinSource2;
 80020f8:	2302      	movs	r3, #2
 80020fa:	e048      	b.n	800218e <_Z14GPIO_PinSourcet+0xc6>
	}else if(GPIO_Pin == GPIO_Pin_3){
 80020fc:	88fb      	ldrh	r3, [r7, #6]
 80020fe:	2b08      	cmp	r3, #8
 8002100:	d101      	bne.n	8002106 <_Z14GPIO_PinSourcet+0x3e>
		return GPIO_PinSource3;
 8002102:	2303      	movs	r3, #3
 8002104:	e043      	b.n	800218e <_Z14GPIO_PinSourcet+0xc6>
	}else if(GPIO_Pin == GPIO_Pin_4){
 8002106:	88fb      	ldrh	r3, [r7, #6]
 8002108:	2b10      	cmp	r3, #16
 800210a:	d101      	bne.n	8002110 <_Z14GPIO_PinSourcet+0x48>
		return GPIO_PinSource4;
 800210c:	2304      	movs	r3, #4
 800210e:	e03e      	b.n	800218e <_Z14GPIO_PinSourcet+0xc6>
	}else if(GPIO_Pin == GPIO_Pin_5){
 8002110:	88fb      	ldrh	r3, [r7, #6]
 8002112:	2b20      	cmp	r3, #32
 8002114:	d101      	bne.n	800211a <_Z14GPIO_PinSourcet+0x52>
		return GPIO_PinSource5;
 8002116:	2305      	movs	r3, #5
 8002118:	e039      	b.n	800218e <_Z14GPIO_PinSourcet+0xc6>
	}else if(GPIO_Pin == GPIO_Pin_6){
 800211a:	88fb      	ldrh	r3, [r7, #6]
 800211c:	2b40      	cmp	r3, #64	; 0x40
 800211e:	d101      	bne.n	8002124 <_Z14GPIO_PinSourcet+0x5c>
		return GPIO_PinSource6;
 8002120:	2306      	movs	r3, #6
 8002122:	e034      	b.n	800218e <_Z14GPIO_PinSourcet+0xc6>
	}else if(GPIO_Pin == GPIO_Pin_7){
 8002124:	88fb      	ldrh	r3, [r7, #6]
 8002126:	2b80      	cmp	r3, #128	; 0x80
 8002128:	d101      	bne.n	800212e <_Z14GPIO_PinSourcet+0x66>
		return GPIO_PinSource7;
 800212a:	2307      	movs	r3, #7
 800212c:	e02f      	b.n	800218e <_Z14GPIO_PinSourcet+0xc6>
	}else if(GPIO_Pin == GPIO_Pin_8){
 800212e:	88fb      	ldrh	r3, [r7, #6]
 8002130:	f5b3 7f80 	cmp.w	r3, #256	; 0x100
 8002134:	d101      	bne.n	800213a <_Z14GPIO_PinSourcet+0x72>
		return GPIO_PinSource8;
 8002136:	2308      	movs	r3, #8
 8002138:	e029      	b.n	800218e <_Z14GPIO_PinSourcet+0xc6>
	}else if(GPIO_Pin == GPIO_Pin_9){
 800213a:	88fb      	ldrh	r3, [r7, #6]
 800213c:	f5b3 7f00 	cmp.w	r3, #512	; 0x200
 8002140:	d101      	bne.n	8002146 <_Z14GPIO_PinSourcet+0x7e>
		return GPIO_PinSource9;
 8002142:	2309      	movs	r3, #9
 8002144:	e023      	b.n	800218e <_Z14GPIO_PinSourcet+0xc6>
	}else if(GPIO_Pin == GPIO_Pin_10){
 8002146:	88fb      	ldrh	r3, [r7, #6]
 8002148:	f5b3 6f80 	cmp.w	r3, #1024	; 0x400
 800214c:	d101      	bne.n	8002152 <_Z14GPIO_PinSourcet+0x8a>
		return GPIO_PinSource10;
 800214e:	230a      	movs	r3, #10
 8002150:	e01d      	b.n	800218e <_Z14GPIO_PinSourcet+0xc6>
	}else if(GPIO_Pin == GPIO_Pin_11){
 8002152:	88fb      	ldrh	r3, [r7, #6]
 8002154:	f5b3 6f00 	cmp.w	r3, #2048	; 0x800
 8002158:	d101      	bne.n	800215e <_Z14GPIO_PinSourcet+0x96>
		return GPIO_PinSource11;
 800215a:	230b      	movs	r3, #11
 800215c:	e017      	b.n	800218e <_Z14GPIO_PinSourcet+0xc6>
	}else if(GPIO_Pin == GPIO_Pin_12){
 800215e:	88fb      	ldrh	r3, [r7, #6]
 8002160:	f5b3 5f80 	cmp.w	r3, #4096	; 0x1000
 8002164:	d101      	bne.n	800216a <_Z14GPIO_PinSourcet+0xa2>
		return GPIO_PinSource12;
 8002166:	230c      	movs	r3, #12
 8002168:	e011      	b.n	800218e <_Z14GPIO_PinSourcet+0xc6>
	}else if(GPIO_Pin == GPIO_Pin_13){
 800216a:	88fb      	ldrh	r3, [r7, #6]
 800216c:	f5b3 5f00 	cmp.w	r3, #8192	; 0x2000
 8002170:	d101      	bne.n	8002176 <_Z14GPIO_PinSourcet+0xae>
		return GPIO_PinSource13;
 8002172:	230d      	movs	r3, #13
 8002174:	e00b      	b.n	800218e <_Z14GPIO_PinSourcet+0xc6>
	}else if(GPIO_Pin == GPIO_Pin_14){
 8002176:	88fb      	ldrh	r3, [r7, #6]
 8002178:	f5b3 4f80 	cmp.w	r3, #16384	; 0x4000
 800217c:	d101      	bne.n	8002182 <_Z14GPIO_PinSourcet+0xba>
		return GPIO_PinSource14;
 800217e:	230e      	movs	r3, #14
 8002180:	e005      	b.n	800218e <_Z14GPIO_PinSourcet+0xc6>
	}else if(GPIO_Pin == GPIO_Pin_15){
 8002182:	88fb      	ldrh	r3, [r7, #6]
 8002184:	f5b3 4f00 	cmp.w	r3, #32768	; 0x8000
 8002188:	d101      	bne.n	800218e <_Z14GPIO_PinSourcet+0xc6>
		return GPIO_PinSource15;
 800218a:	230f      	movs	r3, #15
 800218c:	e7ff      	b.n	800218e <_Z14GPIO_PinSourcet+0xc6>
	}
}
 800218e:	4618      	mov	r0, r3
 8002190:	370c      	adds	r7, #12
 8002192:	46bd      	mov	sp, r7
 8002194:	f85d 7b04 	ldr.w	r7, [sp], #4
 8002198:	4770      	bx	lr
 800219a:	bf00      	nop

0800219c <_Z12GPIO_AF_SPIxP11SPI_TypeDef>:

uint8_t GPIO_AF_SPIx(SPI_TypeDef* SPIx){
 800219c:	b480      	push	{r7}
 800219e:	b083      	sub	sp, #12
 80021a0:	af00      	add	r7, sp, #0
 80021a2:	6078      	str	r0, [r7, #4]
	if(!IS_SPI_ALL_PERIPH(SPIx)){
 80021a4:	687b      	ldr	r3, [r7, #4]
 80021a6:	4a21      	ldr	r2, [pc, #132]	; (800222c <_Z12GPIO_AF_SPIxP11SPI_TypeDef+0x90>)
 80021a8:	4293      	cmp	r3, r2
 80021aa:	d015      	beq.n	80021d8 <_Z12GPIO_AF_SPIxP11SPI_TypeDef+0x3c>
 80021ac:	687b      	ldr	r3, [r7, #4]
 80021ae:	4a20      	ldr	r2, [pc, #128]	; (8002230 <_Z12GPIO_AF_SPIxP11SPI_TypeDef+0x94>)
 80021b0:	4293      	cmp	r3, r2
 80021b2:	d011      	beq.n	80021d8 <_Z12GPIO_AF_SPIxP11SPI_TypeDef+0x3c>
 80021b4:	687b      	ldr	r3, [r7, #4]
 80021b6:	4a1f      	ldr	r2, [pc, #124]	; (8002234 <_Z12GPIO_AF_SPIxP11SPI_TypeDef+0x98>)
 80021b8:	4293      	cmp	r3, r2
 80021ba:	d00d      	beq.n	80021d8 <_Z12GPIO_AF_SPIxP11SPI_TypeDef+0x3c>
 80021bc:	687b      	ldr	r3, [r7, #4]
 80021be:	4a1e      	ldr	r2, [pc, #120]	; (8002238 <_Z12GPIO_AF_SPIxP11SPI_TypeDef+0x9c>)
 80021c0:	4293      	cmp	r3, r2
 80021c2:	d009      	beq.n	80021d8 <_Z12GPIO_AF_SPIxP11SPI_TypeDef+0x3c>
 80021c4:	687b      	ldr	r3, [r7, #4]
 80021c6:	4a1d      	ldr	r2, [pc, #116]	; (800223c <_Z12GPIO_AF_SPIxP11SPI_TypeDef+0xa0>)
 80021c8:	4293      	cmp	r3, r2
 80021ca:	d005      	beq.n	80021d8 <_Z12GPIO_AF_SPIxP11SPI_TypeDef+0x3c>
 80021cc:	687b      	ldr	r3, [r7, #4]
 80021ce:	4a1c      	ldr	r2, [pc, #112]	; (8002240 <_Z12GPIO_AF_SPIxP11SPI_TypeDef+0xa4>)
 80021d0:	4293      	cmp	r3, r2
 80021d2:	d001      	beq.n	80021d8 <_Z12GPIO_AF_SPIxP11SPI_TypeDef+0x3c>
		return 0xFF;
 80021d4:	23ff      	movs	r3, #255	; 0xff
 80021d6:	e023      	b.n	8002220 <_Z12GPIO_AF_SPIxP11SPI_TypeDef+0x84>
	}

	if(SPIx == SPI1){
 80021d8:	687b      	ldr	r3, [r7, #4]
 80021da:	4a14      	ldr	r2, [pc, #80]	; (800222c <_Z12GPIO_AF_SPIxP11SPI_TypeDef+0x90>)
 80021dc:	4293      	cmp	r3, r2
 80021de:	d101      	bne.n	80021e4 <_Z12GPIO_AF_SPIxP11SPI_TypeDef+0x48>
		return GPIO_AF_SPI1;
 80021e0:	2305      	movs	r3, #5
 80021e2:	e01d      	b.n	8002220 <_Z12GPIO_AF_SPIxP11SPI_TypeDef+0x84>
	}else if(SPIx == SPI2){
 80021e4:	687b      	ldr	r3, [r7, #4]
 80021e6:	4a12      	ldr	r2, [pc, #72]	; (8002230 <_Z12GPIO_AF_SPIxP11SPI_TypeDef+0x94>)
 80021e8:	4293      	cmp	r3, r2
 80021ea:	d101      	bne.n	80021f0 <_Z12GPIO_AF_SPIxP11SPI_TypeDef+0x54>
		return GPIO_AF_SPI2;
 80021ec:	2305      	movs	r3, #5
 80021ee:	e017      	b.n	8002220 <_Z12GPIO_AF_SPIxP11SPI_TypeDef+0x84>
	}else if(SPIx == SPI3){
 80021f0:	687b      	ldr	r3, [r7, #4]
 80021f2:	4a10      	ldr	r2, [pc, #64]	; (8002234 <_Z12GPIO_AF_SPIxP11SPI_TypeDef+0x98>)
 80021f4:	4293      	cmp	r3, r2
 80021f6:	d101      	bne.n	80021fc <_Z12GPIO_AF_SPIxP11SPI_TypeDef+0x60>
		return GPIO_AF_SPI3;
 80021f8:	2306      	movs	r3, #6
 80021fa:	e011      	b.n	8002220 <_Z12GPIO_AF_SPIxP11SPI_TypeDef+0x84>
	}else if(SPIx == SPI4){
 80021fc:	687b      	ldr	r3, [r7, #4]
 80021fe:	4a0e      	ldr	r2, [pc, #56]	; (8002238 <_Z12GPIO_AF_SPIxP11SPI_TypeDef+0x9c>)
 8002200:	4293      	cmp	r3, r2
 8002202:	d101      	bne.n	8002208 <_Z12GPIO_AF_SPIxP11SPI_TypeDef+0x6c>
		return GPIO_AF_SPI4;
 8002204:	2305      	movs	r3, #5
 8002206:	e00b      	b.n	8002220 <_Z12GPIO_AF_SPIxP11SPI_TypeDef+0x84>
	}else if(SPIx == SPI5){
 8002208:	687b      	ldr	r3, [r7, #4]
 800220a:	4a0c      	ldr	r2, [pc, #48]	; (800223c <_Z12GPIO_AF_SPIxP11SPI_TypeDef+0xa0>)
 800220c:	4293      	cmp	r3, r2
 800220e:	d101      	bne.n	8002214 <_Z12GPIO_AF_SPIxP11SPI_TypeDef+0x78>
		return GPIO_AF_SPI5;
 8002210:	2305      	movs	r3, #5
 8002212:	e005      	b.n	8002220 <_Z12GPIO_AF_SPIxP11SPI_TypeDef+0x84>
	}else if(SPIx == SPI6){
 8002214:	687b      	ldr	r3, [r7, #4]
 8002216:	4a0a      	ldr	r2, [pc, #40]	; (8002240 <_Z12GPIO_AF_SPIxP11SPI_TypeDef+0xa4>)
 8002218:	4293      	cmp	r3, r2
 800221a:	d101      	bne.n	8002220 <_Z12GPIO_AF_SPIxP11SPI_TypeDef+0x84>
		return GPIO_AF_SPI6;
 800221c:	2305      	movs	r3, #5
 800221e:	e7ff      	b.n	8002220 <_Z12GPIO_AF_SPIxP11SPI_TypeDef+0x84>
	}
}
 8002220:	4618      	mov	r0, r3
 8002222:	370c      	adds	r7, #12
 8002224:	46bd      	mov	sp, r7
 8002226:	f85d 7b04 	ldr.w	r7, [sp], #4
 800222a:	4770      	bx	lr
 800222c:	40013000 	.word	0x40013000
 8002230:	40003800 	.word	0x40003800
 8002234:	40003c00 	.word	0x40003c00
 8002238:	40013400 	.word	0x40013400
 800223c:	40015000 	.word	0x40015000
 8002240:	40015400 	.word	0x40015400

08002244 <_Z10EXTIx_IRQnt>:

IRQn_Type EXTIx_IRQn(uint16_t GPIO_Pin){
 8002244:	b480      	push	{r7}
 8002246:	b083      	sub	sp, #12
 8002248:	af00      	add	r7, sp, #0
 800224a:	4603      	mov	r3, r0
 800224c:	80fb      	strh	r3, [r7, #6]

	if(!IS_GPIO_PIN(GPIO_Pin)){
 800224e:	88fb      	ldrh	r3, [r7, #6]
 8002250:	2b00      	cmp	r3, #0
 8002252:	d102      	bne.n	800225a <_Z10EXTIx_IRQnt+0x16>
		return UsageFault_IRQn;
 8002254:	f06f 0309 	mvn.w	r3, #9
 8002258:	e057      	b.n	800230a <_Z10EXTIx_IRQnt+0xc6>
	}

	if(GPIO_Pin == GPIO_Pin_0){
 800225a:	88fb      	ldrh	r3, [r7, #6]
 800225c:	2b01      	cmp	r3, #1
 800225e:	d101      	bne.n	8002264 <_Z10EXTIx_IRQnt+0x20>
		return EXTI0_IRQn;
 8002260:	2306      	movs	r3, #6
 8002262:	e052      	b.n	800230a <_Z10EXTIx_IRQnt+0xc6>
	}else if(GPIO_Pin == GPIO_Pin_1){
 8002264:	88fb      	ldrh	r3, [r7, #6]
 8002266:	2b02      	cmp	r3, #2
 8002268:	d101      	bne.n	800226e <_Z10EXTIx_IRQnt+0x2a>
		return EXTI1_IRQn;
 800226a:	2307      	movs	r3, #7
 800226c:	e04d      	b.n	800230a <_Z10EXTIx_IRQnt+0xc6>
	}else if(GPIO_Pin == GPIO_Pin_2){
 800226e:	88fb      	ldrh	r3, [r7, #6]
 8002270:	2b04      	cmp	r3, #4
 8002272:	d101      	bne.n	8002278 <_Z10EXTIx_IRQnt+0x34>
		return EXTI2_IRQn;
 8002274:	2308      	movs	r3, #8
 8002276:	e048      	b.n	800230a <_Z10EXTIx_IRQnt+0xc6>
	}else if(GPIO_Pin == GPIO_Pin_3){
 8002278:	88fb      	ldrh	r3, [r7, #6]
 800227a:	2b08      	cmp	r3, #8
 800227c:	d101      	bne.n	8002282 <_Z10EXTIx_IRQnt+0x3e>
		return EXTI3_IRQn;
 800227e:	2309      	movs	r3, #9
 8002280:	e043      	b.n	800230a <_Z10EXTIx_IRQnt+0xc6>
	}else if(GPIO_Pin == GPIO_Pin_4){
 8002282:	88fb      	ldrh	r3, [r7, #6]
 8002284:	2b10      	cmp	r3, #16
 8002286:	d101      	bne.n	800228c <_Z10EXTIx_IRQnt+0x48>
		return EXTI4_IRQn;
 8002288:	230a      	movs	r3, #10
 800228a:	e03e      	b.n	800230a <_Z10EXTIx_IRQnt+0xc6>
	}else if(GPIO_Pin == GPIO_Pin_5){
 800228c:	88fb      	ldrh	r3, [r7, #6]
 800228e:	2b20      	cmp	r3, #32
 8002290:	d101      	bne.n	8002296 <_Z10EXTIx_IRQnt+0x52>
		return EXTI9_5_IRQn;
 8002292:	2317      	movs	r3, #23
 8002294:	e039      	b.n	800230a <_Z10EXTIx_IRQnt+0xc6>
	}else if(GPIO_Pin == GPIO_Pin_6){
 8002296:	88fb      	ldrh	r3, [r7, #6]
 8002298:	2b40      	cmp	r3, #64	; 0x40
 800229a:	d101      	bne.n	80022a0 <_Z10EXTIx_IRQnt+0x5c>
		return EXTI9_5_IRQn;
 800229c:	2317      	movs	r3, #23
 800229e:	e034      	b.n	800230a <_Z10EXTIx_IRQnt+0xc6>
	}else if(GPIO_Pin == GPIO_Pin_7){
 80022a0:	88fb      	ldrh	r3, [r7, #6]
 80022a2:	2b80      	cmp	r3, #128	; 0x80
 80022a4:	d101      	bne.n	80022aa <_Z10EXTIx_IRQnt+0x66>
		return EXTI9_5_IRQn;
 80022a6:	2317      	movs	r3, #23
 80022a8:	e02f      	b.n	800230a <_Z10EXTIx_IRQnt+0xc6>
	}else if(GPIO_Pin == GPIO_Pin_8){
 80022aa:	88fb      	ldrh	r3, [r7, #6]
 80022ac:	f5b3 7f80 	cmp.w	r3, #256	; 0x100
 80022b0:	d101      	bne.n	80022b6 <_Z10EXTIx_IRQnt+0x72>
		return EXTI9_5_IRQn;
 80022b2:	2317      	movs	r3, #23
 80022b4:	e029      	b.n	800230a <_Z10EXTIx_IRQnt+0xc6>
	}else if(GPIO_Pin == GPIO_Pin_9){
 80022b6:	88fb      	ldrh	r3, [r7, #6]
 80022b8:	f5b3 7f00 	cmp.w	r3, #512	; 0x200
 80022bc:	d101      	bne.n	80022c2 <_Z10EXTIx_IRQnt+0x7e>
		return EXTI9_5_IRQn;
 80022be:	2317      	movs	r3, #23
 80022c0:	e023      	b.n	800230a <_Z10EXTIx_IRQnt+0xc6>
	}else if(GPIO_Pin == GPIO_Pin_10){
 80022c2:	88fb      	ldrh	r3, [r7, #6]
 80022c4:	f5b3 6f80 	cmp.w	r3, #1024	; 0x400
 80022c8:	d101      	bne.n	80022ce <_Z10EXTIx_IRQnt+0x8a>
		return EXTI15_10_IRQn;
 80022ca:	2328      	movs	r3, #40	; 0x28
 80022cc:	e01d      	b.n	800230a <_Z10EXTIx_IRQnt+0xc6>
	}else if(GPIO_Pin == GPIO_Pin_11){
 80022ce:	88fb      	ldrh	r3, [r7, #6]
 80022d0:	f5b3 6f00 	cmp.w	r3, #2048	; 0x800
 80022d4:	d101      	bne.n	80022da <_Z10EXTIx_IRQnt+0x96>
		return EXTI15_10_IRQn;
 80022d6:	2328      	movs	r3, #40	; 0x28
 80022d8:	e017      	b.n	800230a <_Z10EXTIx_IRQnt+0xc6>
	}else if(GPIO_Pin == GPIO_Pin_12){
 80022da:	88fb      	ldrh	r3, [r7, #6]
 80022dc:	f5b3 5f80 	cmp.w	r3, #4096	; 0x1000
 80022e0:	d101      	bne.n	80022e6 <_Z10EXTIx_IRQnt+0xa2>
		return EXTI15_10_IRQn;
 80022e2:	2328      	movs	r3, #40	; 0x28
 80022e4:	e011      	b.n	800230a <_Z10EXTIx_IRQnt+0xc6>
	}else if(GPIO_Pin == GPIO_Pin_13){
 80022e6:	88fb      	ldrh	r3, [r7, #6]
 80022e8:	f5b3 5f00 	cmp.w	r3, #8192	; 0x2000
 80022ec:	d101      	bne.n	80022f2 <_Z10EXTIx_IRQnt+0xae>
		return EXTI15_10_IRQn;
 80022ee:	2328      	movs	r3, #40	; 0x28
 80022f0:	e00b      	b.n	800230a <_Z10EXTIx_IRQnt+0xc6>
	}else if(GPIO_Pin == GPIO_Pin_14){
 80022f2:	88fb      	ldrh	r3, [r7, #6]
 80022f4:	f5b3 4f80 	cmp.w	r3, #16384	; 0x4000
 80022f8:	d101      	bne.n	80022fe <_Z10EXTIx_IRQnt+0xba>
		return EXTI15_10_IRQn;
 80022fa:	2328      	movs	r3, #40	; 0x28
 80022fc:	e005      	b.n	800230a <_Z10EXTIx_IRQnt+0xc6>
	}else if(GPIO_Pin == GPIO_Pin_15){
 80022fe:	88fb      	ldrh	r3, [r7, #6]
 8002300:	f5b3 4f00 	cmp.w	r3, #32768	; 0x8000
 8002304:	d101      	bne.n	800230a <_Z10EXTIx_IRQnt+0xc6>
		return EXTI15_10_IRQn;
 8002306:	2328      	movs	r3, #40	; 0x28
 8002308:	e7ff      	b.n	800230a <_Z10EXTIx_IRQnt+0xc6>
	}
}
 800230a:	4618      	mov	r0, r3
 800230c:	370c      	adds	r7, #12
 800230e:	46bd      	mov	sp, r7
 8002310:	f85d 7b04 	ldr.w	r7, [sp], #4
 8002314:	4770      	bx	lr
 8002316:	bf00      	nop

08002318 <_Z9EXTI_Linet>:

uint32_t EXTI_Line(uint16_t GPIO_Pin){
 8002318:	b480      	push	{r7}
 800231a:	b083      	sub	sp, #12
 800231c:	af00      	add	r7, sp, #0
 800231e:	4603      	mov	r3, r0
 8002320:	80fb      	strh	r3, [r7, #6]
	if(!IS_GPIO_PIN(GPIO_Pin)){
 8002322:	88fb      	ldrh	r3, [r7, #6]
 8002324:	2b00      	cmp	r3, #0
 8002326:	d101      	bne.n	800232c <_Z9EXTI_Linet+0x14>
		return 0x00;
 8002328:	2300      	movs	r3, #0
 800232a:	e05f      	b.n	80023ec <_Z9EXTI_Linet+0xd4>
	}

	if(GPIO_Pin == GPIO_Pin_0){
 800232c:	88fb      	ldrh	r3, [r7, #6]
 800232e:	2b01      	cmp	r3, #1
 8002330:	d101      	bne.n	8002336 <_Z9EXTI_Linet+0x1e>
		return EXTI_Line0;
 8002332:	2301      	movs	r3, #1
 8002334:	e05a      	b.n	80023ec <_Z9EXTI_Linet+0xd4>
	}else if(GPIO_Pin == GPIO_Pin_1){
 8002336:	88fb      	ldrh	r3, [r7, #6]
 8002338:	2b02      	cmp	r3, #2
 800233a:	d101      	bne.n	8002340 <_Z9EXTI_Linet+0x28>
		return EXTI_Line1;
 800233c:	2302      	movs	r3, #2
 800233e:	e055      	b.n	80023ec <_Z9EXTI_Linet+0xd4>
	}else if(GPIO_Pin == GPIO_Pin_2){
 8002340:	88fb      	ldrh	r3, [r7, #6]
 8002342:	2b04      	cmp	r3, #4
 8002344:	d101      	bne.n	800234a <_Z9EXTI_Linet+0x32>
		return EXTI_Line2;
 8002346:	2304      	movs	r3, #4
 8002348:	e050      	b.n	80023ec <_Z9EXTI_Linet+0xd4>
	}else if(GPIO_Pin == GPIO_Pin_3){
 800234a:	88fb      	ldrh	r3, [r7, #6]
 800234c:	2b08      	cmp	r3, #8
 800234e:	d101      	bne.n	8002354 <_Z9EXTI_Linet+0x3c>
		return EXTI_Line3;
 8002350:	2308      	movs	r3, #8
 8002352:	e04b      	b.n	80023ec <_Z9EXTI_Linet+0xd4>
	}else if(GPIO_Pin == GPIO_Pin_4){
 8002354:	88fb      	ldrh	r3, [r7, #6]
 8002356:	2b10      	cmp	r3, #16
 8002358:	d101      	bne.n	800235e <_Z9EXTI_Linet+0x46>
		return EXTI_Line4;
 800235a:	2310      	movs	r3, #16
 800235c:	e046      	b.n	80023ec <_Z9EXTI_Linet+0xd4>
	}else if(GPIO_Pin == GPIO_Pin_5){
 800235e:	88fb      	ldrh	r3, [r7, #6]
 8002360:	2b20      	cmp	r3, #32
 8002362:	d101      	bne.n	8002368 <_Z9EXTI_Linet+0x50>
		return EXTI_Line5;
 8002364:	2320      	movs	r3, #32
 8002366:	e041      	b.n	80023ec <_Z9EXTI_Linet+0xd4>
	}else if(GPIO_Pin == GPIO_Pin_6){
 8002368:	88fb      	ldrh	r3, [r7, #6]
 800236a:	2b40      	cmp	r3, #64	; 0x40
 800236c:	d101      	bne.n	8002372 <_Z9EXTI_Linet+0x5a>
		return EXTI_Line6;
 800236e:	2340      	movs	r3, #64	; 0x40
 8002370:	e03c      	b.n	80023ec <_Z9EXTI_Linet+0xd4>
	}else if(GPIO_Pin == GPIO_Pin_7){
 8002372:	88fb      	ldrh	r3, [r7, #6]
 8002374:	2b80      	cmp	r3, #128	; 0x80
 8002376:	d101      	bne.n	800237c <_Z9EXTI_Linet+0x64>
		return EXTI_Line7;
 8002378:	2380      	movs	r3, #128	; 0x80
 800237a:	e037      	b.n	80023ec <_Z9EXTI_Linet+0xd4>
	}else if(GPIO_Pin == GPIO_Pin_8){
 800237c:	88fb      	ldrh	r3, [r7, #6]
 800237e:	f5b3 7f80 	cmp.w	r3, #256	; 0x100
 8002382:	d102      	bne.n	800238a <_Z9EXTI_Linet+0x72>
		return EXTI_Line8;
 8002384:	f44f 7380 	mov.w	r3, #256	; 0x100
 8002388:	e030      	b.n	80023ec <_Z9EXTI_Linet+0xd4>
	}else if(GPIO_Pin == GPIO_Pin_9){
 800238a:	88fb      	ldrh	r3, [r7, #6]
 800238c:	f5b3 7f00 	cmp.w	r3, #512	; 0x200
 8002390:	d102      	bne.n	8002398 <_Z9EXTI_Linet+0x80>
		return EXTI_Line9;
 8002392:	f44f 7300 	mov.w	r3, #512	; 0x200
 8002396:	e029      	b.n	80023ec <_Z9EXTI_Linet+0xd4>
	}else if(GPIO_Pin == GPIO_Pin_10){
 8002398:	88fb      	ldrh	r3, [r7, #6]
 800239a:	f5b3 6f80 	cmp.w	r3, #1024	; 0x400
 800239e:	d102      	bne.n	80023a6 <_Z9EXTI_Linet+0x8e>
		return EXTI_Line10;
 80023a0:	f44f 6380 	mov.w	r3, #1024	; 0x400
 80023a4:	e022      	b.n	80023ec <_Z9EXTI_Linet+0xd4>
	}else if(GPIO_Pin == GPIO_Pin_11){
 80023a6:	88fb      	ldrh	r3, [r7, #6]
 80023a8:	f5b3 6f00 	cmp.w	r3, #2048	; 0x800
 80023ac:	d102      	bne.n	80023b4 <_Z9EXTI_Linet+0x9c>
		return EXTI_Line11;
 80023ae:	f44f 6300 	mov.w	r3, #2048	; 0x800
 80023b2:	e01b      	b.n	80023ec <_Z9EXTI_Linet+0xd4>
	}else if(GPIO_Pin == GPIO_Pin_12){
 80023b4:	88fb      	ldrh	r3, [r7, #6]
 80023b6:	f5b3 5f80 	cmp.w	r3, #4096	; 0x1000
 80023ba:	d102      	bne.n	80023c2 <_Z9EXTI_Linet+0xaa>
		return EXTI_Line12;
 80023bc:	f44f 5380 	mov.w	r3, #4096	; 0x1000
 80023c0:	e014      	b.n	80023ec <_Z9EXTI_Linet+0xd4>
	}else if(GPIO_Pin == GPIO_Pin_13){
 80023c2:	88fb      	ldrh	r3, [r7, #6]
 80023c4:	f5b3 5f00 	cmp.w	r3, #8192	; 0x2000
 80023c8:	d102      	bne.n	80023d0 <_Z9EXTI_Linet+0xb8>
		return EXTI_Line13;
 80023ca:	f44f 5300 	mov.w	r3, #8192	; 0x2000
 80023ce:	e00d      	b.n	80023ec <_Z9EXTI_Linet+0xd4>
	}else if(GPIO_Pin == GPIO_Pin_14){
 80023d0:	88fb      	ldrh	r3, [r7, #6]
 80023d2:	f5b3 4f80 	cmp.w	r3, #16384	; 0x4000
 80023d6:	d102      	bne.n	80023de <_Z9EXTI_Linet+0xc6>
		return EXTI_Line14;
 80023d8:	f44f 4380 	mov.w	r3, #16384	; 0x4000
 80023dc:	e006      	b.n	80023ec <_Z9EXTI_Linet+0xd4>
	}else if(GPIO_Pin == GPIO_Pin_15){
 80023de:	88fb      	ldrh	r3, [r7, #6]
 80023e0:	f5b3 4f00 	cmp.w	r3, #32768	; 0x8000
 80023e4:	d102      	bne.n	80023ec <_Z9EXTI_Linet+0xd4>
		return EXTI_Line15;
 80023e6:	f44f 4300 	mov.w	r3, #32768	; 0x8000
 80023ea:	e7ff      	b.n	80023ec <_Z9EXTI_Linet+0xd4>
	}
}
 80023ec:	4618      	mov	r0, r3
 80023ee:	370c      	adds	r7, #12
 80023f0:	46bd      	mov	sp, r7
 80023f2:	f85d 7b04 	ldr.w	r7, [sp], #4
 80023f6:	4770      	bx	lr

080023f8 <_Z15EXTI_PortSourceP12GPIO_TypeDef>:

uint8_t EXTI_PortSource(GPIO_TypeDef* GPIOx){
 80023f8:	b480      	push	{r7}
 80023fa:	b083      	sub	sp, #12
 80023fc:	af00      	add	r7, sp, #0
 80023fe:	6078      	str	r0, [r7, #4]
	if(!IS_GPIO_ALL_PERIPH(GPIOx)){
 8002400:	687b      	ldr	r3, [r7, #4]
 8002402:	4a30      	ldr	r2, [pc, #192]	; (80024c4 <_Z15EXTI_PortSourceP12GPIO_TypeDef+0xcc>)
 8002404:	4293      	cmp	r3, r2
 8002406:	d021      	beq.n	800244c <_Z15EXTI_PortSourceP12GPIO_TypeDef+0x54>
 8002408:	687b      	ldr	r3, [r7, #4]
 800240a:	4a2f      	ldr	r2, [pc, #188]	; (80024c8 <_Z15EXTI_PortSourceP12GPIO_TypeDef+0xd0>)
 800240c:	4293      	cmp	r3, r2
 800240e:	d01d      	beq.n	800244c <_Z15EXTI_PortSourceP12GPIO_TypeDef+0x54>
 8002410:	687b      	ldr	r3, [r7, #4]
 8002412:	4a2e      	ldr	r2, [pc, #184]	; (80024cc <_Z15EXTI_PortSourceP12GPIO_TypeDef+0xd4>)
 8002414:	4293      	cmp	r3, r2
 8002416:	d019      	beq.n	800244c <_Z15EXTI_PortSourceP12GPIO_TypeDef+0x54>
 8002418:	687b      	ldr	r3, [r7, #4]
 800241a:	4a2d      	ldr	r2, [pc, #180]	; (80024d0 <_Z15EXTI_PortSourceP12GPIO_TypeDef+0xd8>)
 800241c:	4293      	cmp	r3, r2
 800241e:	d015      	beq.n	800244c <_Z15EXTI_PortSourceP12GPIO_TypeDef+0x54>
 8002420:	687b      	ldr	r3, [r7, #4]
 8002422:	4a2c      	ldr	r2, [pc, #176]	; (80024d4 <_Z15EXTI_PortSourceP12GPIO_TypeDef+0xdc>)
 8002424:	4293      	cmp	r3, r2
 8002426:	d011      	beq.n	800244c <_Z15EXTI_PortSourceP12GPIO_TypeDef+0x54>
 8002428:	687b      	ldr	r3, [r7, #4]
 800242a:	4a2b      	ldr	r2, [pc, #172]	; (80024d8 <_Z15EXTI_PortSourceP12GPIO_TypeDef+0xe0>)
 800242c:	4293      	cmp	r3, r2
 800242e:	d00d      	beq.n	800244c <_Z15EXTI_PortSourceP12GPIO_TypeDef+0x54>
 8002430:	687b      	ldr	r3, [r7, #4]
 8002432:	4a2a      	ldr	r2, [pc, #168]	; (80024dc <_Z15EXTI_PortSourceP12GPIO_TypeDef+0xe4>)
 8002434:	4293      	cmp	r3, r2
 8002436:	d009      	beq.n	800244c <_Z15EXTI_PortSourceP12GPIO_TypeDef+0x54>
 8002438:	687b      	ldr	r3, [r7, #4]
 800243a:	4a29      	ldr	r2, [pc, #164]	; (80024e0 <_Z15EXTI_PortSourceP12GPIO_TypeDef+0xe8>)
 800243c:	4293      	cmp	r3, r2
 800243e:	d005      	beq.n	800244c <_Z15EXTI_PortSourceP12GPIO_TypeDef+0x54>
 8002440:	687b      	ldr	r3, [r7, #4]
 8002442:	4a28      	ldr	r2, [pc, #160]	; (80024e4 <_Z15EXTI_PortSourceP12GPIO_TypeDef+0xec>)
 8002444:	4293      	cmp	r3, r2
 8002446:	d001      	beq.n	800244c <_Z15EXTI_PortSourceP12GPIO_TypeDef+0x54>
		return 0xff;
 8002448:	23ff      	movs	r3, #255	; 0xff
 800244a:	e035      	b.n	80024b8 <_Z15EXTI_PortSourceP12GPIO_TypeDef+0xc0>
	}

	if(GPIOx == GPIOA){
 800244c:	687b      	ldr	r3, [r7, #4]
 800244e:	4a1d      	ldr	r2, [pc, #116]	; (80024c4 <_Z15EXTI_PortSourceP12GPIO_TypeDef+0xcc>)
 8002450:	4293      	cmp	r3, r2
 8002452:	d101      	bne.n	8002458 <_Z15EXTI_PortSourceP12GPIO_TypeDef+0x60>
		return EXTI_PortSourceGPIOA;
 8002454:	2300      	movs	r3, #0
 8002456:	e02f      	b.n	80024b8 <_Z15EXTI_PortSourceP12GPIO_TypeDef+0xc0>
	}else if(GPIOx == GPIOB){
 8002458:	687b      	ldr	r3, [r7, #4]
 800245a:	4a1b      	ldr	r2, [pc, #108]	; (80024c8 <_Z15EXTI_PortSourceP12GPIO_TypeDef+0xd0>)
 800245c:	4293      	cmp	r3, r2
 800245e:	d101      	bne.n	8002464 <_Z15EXTI_PortSourceP12GPIO_TypeDef+0x6c>
		return EXTI_PortSourceGPIOB;
 8002460:	2301      	movs	r3, #1
 8002462:	e029      	b.n	80024b8 <_Z15EXTI_PortSourceP12GPIO_TypeDef+0xc0>
	}else if(GPIOx == GPIOC){
 8002464:	687b      	ldr	r3, [r7, #4]
 8002466:	4a19      	ldr	r2, [pc, #100]	; (80024cc <_Z15EXTI_PortSourceP12GPIO_TypeDef+0xd4>)
 8002468:	4293      	cmp	r3, r2
 800246a:	d101      	bne.n	8002470 <_Z15EXTI_PortSourceP12GPIO_TypeDef+0x78>
		return EXTI_PortSourceGPIOC;
 800246c:	2302      	movs	r3, #2
 800246e:	e023      	b.n	80024b8 <_Z15EXTI_PortSourceP12GPIO_TypeDef+0xc0>
	}else if(GPIOx == GPIOD){
 8002470:	687b      	ldr	r3, [r7, #4]
 8002472:	4a17      	ldr	r2, [pc, #92]	; (80024d0 <_Z15EXTI_PortSourceP12GPIO_TypeDef+0xd8>)
 8002474:	4293      	cmp	r3, r2
 8002476:	d101      	bne.n	800247c <_Z15EXTI_PortSourceP12GPIO_TypeDef+0x84>
		return EXTI_PortSourceGPIOD;
 8002478:	2303      	movs	r3, #3
 800247a:	e01d      	b.n	80024b8 <_Z15EXTI_PortSourceP12GPIO_TypeDef+0xc0>
	}else if(GPIOx == GPIOE){
 800247c:	687b      	ldr	r3, [r7, #4]
 800247e:	4a15      	ldr	r2, [pc, #84]	; (80024d4 <_Z15EXTI_PortSourceP12GPIO_TypeDef+0xdc>)
 8002480:	4293      	cmp	r3, r2
 8002482:	d101      	bne.n	8002488 <_Z15EXTI_PortSourceP12GPIO_TypeDef+0x90>
		return EXTI_PortSourceGPIOE;
 8002484:	2304      	movs	r3, #4
 8002486:	e017      	b.n	80024b8 <_Z15EXTI_PortSourceP12GPIO_TypeDef+0xc0>
	}else if(GPIOx == GPIOF){
 8002488:	687b      	ldr	r3, [r7, #4]
 800248a:	4a13      	ldr	r2, [pc, #76]	; (80024d8 <_Z15EXTI_PortSourceP12GPIO_TypeDef+0xe0>)
 800248c:	4293      	cmp	r3, r2
 800248e:	d101      	bne.n	8002494 <_Z15EXTI_PortSourceP12GPIO_TypeDef+0x9c>
		return EXTI_PortSourceGPIOF;
 8002490:	2305      	movs	r3, #5
 8002492:	e011      	b.n	80024b8 <_Z15EXTI_PortSourceP12GPIO_TypeDef+0xc0>
	}else if(GPIOx == GPIOG){
 8002494:	687b      	ldr	r3, [r7, #4]
 8002496:	4a11      	ldr	r2, [pc, #68]	; (80024dc <_Z15EXTI_PortSourceP12GPIO_TypeDef+0xe4>)
 8002498:	4293      	cmp	r3, r2
 800249a:	d101      	bne.n	80024a0 <_Z15EXTI_PortSourceP12GPIO_TypeDef+0xa8>
		return EXTI_PortSourceGPIOG;
 800249c:	2306      	movs	r3, #6
 800249e:	e00b      	b.n	80024b8 <_Z15EXTI_PortSourceP12GPIO_TypeDef+0xc0>
	}else if(GPIOx == GPIOH){
 80024a0:	687b      	ldr	r3, [r7, #4]
 80024a2:	4a0f      	ldr	r2, [pc, #60]	; (80024e0 <_Z15EXTI_PortSourceP12GPIO_TypeDef+0xe8>)
 80024a4:	4293      	cmp	r3, r2
 80024a6:	d101      	bne.n	80024ac <_Z15EXTI_PortSourceP12GPIO_TypeDef+0xb4>
		return EXTI_PortSourceGPIOH;
 80024a8:	2307      	movs	r3, #7
 80024aa:	e005      	b.n	80024b8 <_Z15EXTI_PortSourceP12GPIO_TypeDef+0xc0>
	}else if(GPIOx == GPIOI){
 80024ac:	687b      	ldr	r3, [r7, #4]
 80024ae:	4a0d      	ldr	r2, [pc, #52]	; (80024e4 <_Z15EXTI_PortSourceP12GPIO_TypeDef+0xec>)
 80024b0:	4293      	cmp	r3, r2
 80024b2:	d101      	bne.n	80024b8 <_Z15EXTI_PortSourceP12GPIO_TypeDef+0xc0>
		return EXTI_PortSourceGPIOI;
 80024b4:	2308      	movs	r3, #8
 80024b6:	e7ff      	b.n	80024b8 <_Z15EXTI_PortSourceP12GPIO_TypeDef+0xc0>
	}
}
 80024b8:	4618      	mov	r0, r3
 80024ba:	370c      	adds	r7, #12
 80024bc:	46bd      	mov	sp, r7
 80024be:	f85d 7b04 	ldr.w	r7, [sp], #4
 80024c2:	4770      	bx	lr
 80024c4:	40020000 	.word	0x40020000
 80024c8:	40020400 	.word	0x40020400
 80024cc:	40020800 	.word	0x40020800
 80024d0:	40020c00 	.word	0x40020c00
 80024d4:	40021000 	.word	0x40021000
 80024d8:	40021400 	.word	0x40021400
 80024dc:	40021800 	.word	0x40021800
 80024e0:	40021c00 	.word	0x40021c00
 80024e4:	40022000 	.word	0x40022000

080024e8 <_Z14EXTI_PinSourcet>:

uint8_t EXTI_PinSource(uint16_t GPIO_Pin){
 80024e8:	b480      	push	{r7}
 80024ea:	b083      	sub	sp, #12
 80024ec:	af00      	add	r7, sp, #0
 80024ee:	4603      	mov	r3, r0
 80024f0:	80fb      	strh	r3, [r7, #6]
	if(!IS_GPIO_PIN(GPIO_Pin)){
 80024f2:	88fb      	ldrh	r3, [r7, #6]
 80024f4:	2b00      	cmp	r3, #0
 80024f6:	d101      	bne.n	80024fc <_Z14EXTI_PinSourcet+0x14>
		return 0xff;
 80024f8:	23ff      	movs	r3, #255	; 0xff
 80024fa:	e057      	b.n	80025ac <_Z14EXTI_PinSourcet+0xc4>
	}

	if(GPIO_Pin == GPIO_Pin_0){
 80024fc:	88fb      	ldrh	r3, [r7, #6]
 80024fe:	2b01      	cmp	r3, #1
 8002500:	d101      	bne.n	8002506 <_Z14EXTI_PinSourcet+0x1e>
		return EXTI_PinSource0;
 8002502:	2300      	movs	r3, #0
 8002504:	e052      	b.n	80025ac <_Z14EXTI_PinSourcet+0xc4>
	}else if(GPIO_Pin == GPIO_Pin_1){
 8002506:	88fb      	ldrh	r3, [r7, #6]
 8002508:	2b02      	cmp	r3, #2
 800250a:	d101      	bne.n	8002510 <_Z14EXTI_PinSourcet+0x28>
		return EXTI_PinSource1;
 800250c:	2301      	movs	r3, #1
 800250e:	e04d      	b.n	80025ac <_Z14EXTI_PinSourcet+0xc4>
	}else if(GPIO_Pin == GPIO_Pin_2){
 8002510:	88fb      	ldrh	r3, [r7, #6]
 8002512:	2b04      	cmp	r3, #4
 8002514:	d101      	bne.n	800251a <_Z14EXTI_PinSourcet+0x32>
		return EXTI_PinSource2;
 8002516:	2302      	movs	r3, #2
 8002518:	e048      	b.n	80025ac <_Z14EXTI_PinSourcet+0xc4>
	}else if(GPIO_Pin == GPIO_Pin_3){
 800251a:	88fb      	ldrh	r3, [r7, #6]
 800251c:	2b08      	cmp	r3, #8
 800251e:	d101      	bne.n	8002524 <_Z14EXTI_PinSourcet+0x3c>
		return EXTI_PinSource3;
 8002520:	2303      	movs	r3, #3
 8002522:	e043      	b.n	80025ac <_Z14EXTI_PinSourcet+0xc4>
	}else if(GPIO_Pin == GPIO_Pin_4){
 8002524:	88fb      	ldrh	r3, [r7, #6]
 8002526:	2b10      	cmp	r3, #16
 8002528:	d101      	bne.n	800252e <_Z14EXTI_PinSourcet+0x46>
		return EXTI_PinSource4;
 800252a:	2304      	movs	r3, #4
 800252c:	e03e      	b.n	80025ac <_Z14EXTI_PinSourcet+0xc4>
	}else if(GPIO_Pin == GPIO_Pin_5){
 800252e:	88fb      	ldrh	r3, [r7, #6]
 8002530:	2b20      	cmp	r3, #32
 8002532:	d101      	bne.n	8002538 <_Z14EXTI_PinSourcet+0x50>
		return EXTI_PinSource5;
 8002534:	2305      	movs	r3, #5
 8002536:	e039      	b.n	80025ac <_Z14EXTI_PinSourcet+0xc4>
	}else if(GPIO_Pin == GPIO_Pin_6){
 8002538:	88fb      	ldrh	r3, [r7, #6]
 800253a:	2b40      	cmp	r3, #64	; 0x40
 800253c:	d101      	bne.n	8002542 <_Z14EXTI_PinSourcet+0x5a>
		return EXTI_PinSource6;
 800253e:	2306      	movs	r3, #6
 8002540:	e034      	b.n	80025ac <_Z14EXTI_PinSourcet+0xc4>
	}else if(GPIO_Pin == GPIO_Pin_7){
 8002542:	88fb      	ldrh	r3, [r7, #6]
 8002544:	2b80      	cmp	r3, #128	; 0x80
 8002546:	d101      	bne.n	800254c <_Z14EXTI_PinSourcet+0x64>
		return EXTI_PinSource7;
 8002548:	2307      	movs	r3, #7
 800254a:	e02f      	b.n	80025ac <_Z14EXTI_PinSourcet+0xc4>
	}else if(GPIO_Pin == GPIO_Pin_8){
 800254c:	88fb      	ldrh	r3, [r7, #6]
 800254e:	f5b3 7f80 	cmp.w	r3, #256	; 0x100
 8002552:	d101      	bne.n	8002558 <_Z14EXTI_PinSourcet+0x70>
		return EXTI_PinSource8;
 8002554:	2308      	movs	r3, #8
 8002556:	e029      	b.n	80025ac <_Z14EXTI_PinSourcet+0xc4>
	}else if(GPIO_Pin == GPIO_Pin_9){
 8002558:	88fb      	ldrh	r3, [r7, #6]
 800255a:	f5b3 7f00 	cmp.w	r3, #512	; 0x200
 800255e:	d101      	bne.n	8002564 <_Z14EXTI_PinSourcet+0x7c>
		return EXTI_PinSource9;
 8002560:	2309      	movs	r3, #9
 8002562:	e023      	b.n	80025ac <_Z14EXTI_PinSourcet+0xc4>
	}else if(GPIO_Pin == GPIO_Pin_10){
 8002564:	88fb      	ldrh	r3, [r7, #6]
 8002566:	f5b3 6f80 	cmp.w	r3, #1024	; 0x400
 800256a:	d101      	bne.n	8002570 <_Z14EXTI_PinSourcet+0x88>
		return EXTI_PinSource10;
 800256c:	230a      	movs	r3, #10
 800256e:	e01d      	b.n	80025ac <_Z14EXTI_PinSourcet+0xc4>
	}else if(GPIO_Pin == GPIO_Pin_11){
 8002570:	88fb      	ldrh	r3, [r7, #6]
 8002572:	f5b3 6f00 	cmp.w	r3, #2048	; 0x800
 8002576:	d101      	bne.n	800257c <_Z14EXTI_PinSourcet+0x94>
		return EXTI_PinSource11;
 8002578:	230b      	movs	r3, #11
 800257a:	e017      	b.n	80025ac <_Z14EXTI_PinSourcet+0xc4>
	}else if(GPIO_Pin == GPIO_Pin_12){
 800257c:	88fb      	ldrh	r3, [r7, #6]
 800257e:	f5b3 5f80 	cmp.w	r3, #4096	; 0x1000
 8002582:	d101      	bne.n	8002588 <_Z14EXTI_PinSourcet+0xa0>
		return EXTI_PinSource12;
 8002584:	230c      	movs	r3, #12
 8002586:	e011      	b.n	80025ac <_Z14EXTI_PinSourcet+0xc4>
	}else if(GPIO_Pin == GPIO_Pin_13){
 8002588:	88fb      	ldrh	r3, [r7, #6]
 800258a:	f5b3 5f00 	cmp.w	r3, #8192	; 0x2000
 800258e:	d101      	bne.n	8002594 <_Z14EXTI_PinSourcet+0xac>
		return EXTI_PinSource13;
 8002590:	230d      	movs	r3, #13
 8002592:	e00b      	b.n	80025ac <_Z14EXTI_PinSourcet+0xc4>
	}else if(GPIO_Pin == GPIO_Pin_14){
 8002594:	88fb      	ldrh	r3, [r7, #6]
 8002596:	f5b3 4f80 	cmp.w	r3, #16384	; 0x4000
 800259a:	d101      	bne.n	80025a0 <_Z14EXTI_PinSourcet+0xb8>
		return EXTI_PinSource14;
 800259c:	230e      	movs	r3, #14
 800259e:	e005      	b.n	80025ac <_Z14EXTI_PinSourcet+0xc4>
	}else if(GPIO_Pin == GPIO_Pin_15){
 80025a0:	88fb      	ldrh	r3, [r7, #6]
 80025a2:	f5b3 4f00 	cmp.w	r3, #32768	; 0x8000
 80025a6:	d101      	bne.n	80025ac <_Z14EXTI_PinSourcet+0xc4>
		return EXTI_PinSource15;
 80025a8:	230f      	movs	r3, #15
 80025aa:	e7ff      	b.n	80025ac <_Z14EXTI_PinSourcet+0xc4>
	}
}
 80025ac:	4618      	mov	r0, r3
 80025ae:	370c      	adds	r7, #12
 80025b0:	46bd      	mov	sp, r7
 80025b2:	f85d 7b04 	ldr.w	r7, [sp], #4
 80025b6:	4770      	bx	lr

080025b8 <SYSCFG_EXTILineConfig>:
  *           and STM32F427x/STM32F437x devices. 
  *             
  * @retval None
  */
void SYSCFG_EXTILineConfig(uint8_t EXTI_PortSourceGPIOx, uint8_t EXTI_PinSourcex)
{
 80025b8:	b490      	push	{r4, r7}
 80025ba:	b084      	sub	sp, #16
 80025bc:	af00      	add	r7, sp, #0
 80025be:	4603      	mov	r3, r0
 80025c0:	460a      	mov	r2, r1
 80025c2:	71fb      	strb	r3, [r7, #7]
 80025c4:	4613      	mov	r3, r2
 80025c6:	71bb      	strb	r3, [r7, #6]
  uint32_t tmp = 0x00;
 80025c8:	2300      	movs	r3, #0
 80025ca:	60fb      	str	r3, [r7, #12]

  /* Check the parameters */
  assert_param(IS_EXTI_PORT_SOURCE(EXTI_PortSourceGPIOx));
  assert_param(IS_EXTI_PIN_SOURCE(EXTI_PinSourcex));

  tmp = ((uint32_t)0x0F) << (0x04 * (EXTI_PinSourcex & (uint8_t)0x03));
 80025cc:	79bb      	ldrb	r3, [r7, #6]
 80025ce:	f003 0303 	and.w	r3, r3, #3
 80025d2:	009b      	lsls	r3, r3, #2
 80025d4:	220f      	movs	r2, #15
 80025d6:	fa02 f303 	lsl.w	r3, r2, r3
 80025da:	60fb      	str	r3, [r7, #12]
  SYSCFG->EXTICR[EXTI_PinSourcex >> 0x02] &= ~tmp;
 80025dc:	4916      	ldr	r1, [pc, #88]	; (8002638 <SYSCFG_EXTILineConfig+0x80>)
 80025de:	79bb      	ldrb	r3, [r7, #6]
 80025e0:	089b      	lsrs	r3, r3, #2
 80025e2:	b2db      	uxtb	r3, r3
 80025e4:	4618      	mov	r0, r3
 80025e6:	4a14      	ldr	r2, [pc, #80]	; (8002638 <SYSCFG_EXTILineConfig+0x80>)
 80025e8:	79bb      	ldrb	r3, [r7, #6]
 80025ea:	089b      	lsrs	r3, r3, #2
 80025ec:	b2db      	uxtb	r3, r3
 80025ee:	3302      	adds	r3, #2
 80025f0:	f852 2023 	ldr.w	r2, [r2, r3, lsl #2]
 80025f4:	68fb      	ldr	r3, [r7, #12]
 80025f6:	43db      	mvns	r3, r3
 80025f8:	401a      	ands	r2, r3
 80025fa:	1c83      	adds	r3, r0, #2
 80025fc:	f841 2023 	str.w	r2, [r1, r3, lsl #2]
  SYSCFG->EXTICR[EXTI_PinSourcex >> 0x02] |= (((uint32_t)EXTI_PortSourceGPIOx) << (0x04 * (EXTI_PinSourcex & (uint8_t)0x03)));
 8002600:	480d      	ldr	r0, [pc, #52]	; (8002638 <SYSCFG_EXTILineConfig+0x80>)
 8002602:	79bb      	ldrb	r3, [r7, #6]
 8002604:	089b      	lsrs	r3, r3, #2
 8002606:	b2db      	uxtb	r3, r3
 8002608:	461c      	mov	r4, r3
 800260a:	4a0b      	ldr	r2, [pc, #44]	; (8002638 <SYSCFG_EXTILineConfig+0x80>)
 800260c:	79bb      	ldrb	r3, [r7, #6]
 800260e:	089b      	lsrs	r3, r3, #2
 8002610:	b2db      	uxtb	r3, r3
 8002612:	3302      	adds	r3, #2
 8002614:	f852 2023 	ldr.w	r2, [r2, r3, lsl #2]
 8002618:	79f9      	ldrb	r1, [r7, #7]
 800261a:	79bb      	ldrb	r3, [r7, #6]
 800261c:	f003 0303 	and.w	r3, r3, #3
 8002620:	009b      	lsls	r3, r3, #2
 8002622:	fa01 f303 	lsl.w	r3, r1, r3
 8002626:	431a      	orrs	r2, r3
 8002628:	1ca3      	adds	r3, r4, #2
 800262a:	f840 2023 	str.w	r2, [r0, r3, lsl #2]
}
 800262e:	bf00      	nop
 8002630:	3710      	adds	r7, #16
 8002632:	46bd      	mov	sp, r7
 8002634:	bc90      	pop	{r4, r7}
 8002636:	4770      	bx	lr
 8002638:	40013800 	.word	0x40013800

0800263c <SPI_Init>:
  * @param  SPI_InitStruct: pointer to a SPI_InitTypeDef structure that
  *         contains the configuration information for the specified SPI peripheral.
  * @retval None
  */
void SPI_Init(SPI_TypeDef* SPIx, SPI_InitTypeDef* SPI_InitStruct)
{
 800263c:	b480      	push	{r7}
 800263e:	b085      	sub	sp, #20
 8002640:	af00      	add	r7, sp, #0
 8002642:	6078      	str	r0, [r7, #4]
 8002644:	6039      	str	r1, [r7, #0]
  uint16_t tmpreg = 0;
 8002646:	2300      	movs	r3, #0
 8002648:	81fb      	strh	r3, [r7, #14]
  assert_param(IS_SPI_FIRST_BIT(SPI_InitStruct->SPI_FirstBit));
  assert_param(IS_SPI_CRC_POLYNOMIAL(SPI_InitStruct->SPI_CRCPolynomial));

/*---------------------------- SPIx CR1 Configuration ------------------------*/
  /* Get the SPIx CR1 value */
  tmpreg = SPIx->CR1;
 800264a:	687b      	ldr	r3, [r7, #4]
 800264c:	881b      	ldrh	r3, [r3, #0]
 800264e:	81fb      	strh	r3, [r7, #14]
  /* Clear BIDIMode, BIDIOE, RxONLY, SSM, SSI, LSBFirst, BR, MSTR, CPOL and CPHA bits */
  tmpreg &= CR1_CLEAR_MASK;
 8002650:	89fb      	ldrh	r3, [r7, #14]
 8002652:	f403 5341 	and.w	r3, r3, #12352	; 0x3040
 8002656:	81fb      	strh	r3, [r7, #14]
  /* Set SSM, SSI and MSTR bits according to SPI_Mode and SPI_NSS values */
  /* Set LSBFirst bit according to SPI_FirstBit value */
  /* Set BR bits according to SPI_BaudRatePrescaler value */
  /* Set CPOL bit according to SPI_CPOL value */
  /* Set CPHA bit according to SPI_CPHA value */
  tmpreg |= (uint16_t)((uint32_t)SPI_InitStruct->SPI_Direction | SPI_InitStruct->SPI_Mode |
 8002658:	683b      	ldr	r3, [r7, #0]
 800265a:	881a      	ldrh	r2, [r3, #0]
 800265c:	683b      	ldr	r3, [r7, #0]
 800265e:	885b      	ldrh	r3, [r3, #2]
 8002660:	4313      	orrs	r3, r2
 8002662:	b29a      	uxth	r2, r3
                  SPI_InitStruct->SPI_DataSize | SPI_InitStruct->SPI_CPOL |  
 8002664:	683b      	ldr	r3, [r7, #0]
 8002666:	889b      	ldrh	r3, [r3, #4]
  /* Set SSM, SSI and MSTR bits according to SPI_Mode and SPI_NSS values */
  /* Set LSBFirst bit according to SPI_FirstBit value */
  /* Set BR bits according to SPI_BaudRatePrescaler value */
  /* Set CPOL bit according to SPI_CPOL value */
  /* Set CPHA bit according to SPI_CPHA value */
  tmpreg |= (uint16_t)((uint32_t)SPI_InitStruct->SPI_Direction | SPI_InitStruct->SPI_Mode |
 8002668:	4313      	orrs	r3, r2
 800266a:	b29a      	uxth	r2, r3
                  SPI_InitStruct->SPI_DataSize | SPI_InitStruct->SPI_CPOL |  
 800266c:	683b      	ldr	r3, [r7, #0]
 800266e:	88db      	ldrh	r3, [r3, #6]
  /* Set SSM, SSI and MSTR bits according to SPI_Mode and SPI_NSS values */
  /* Set LSBFirst bit according to SPI_FirstBit value */
  /* Set BR bits according to SPI_BaudRatePrescaler value */
  /* Set CPOL bit according to SPI_CPOL value */
  /* Set CPHA bit according to SPI_CPHA value */
  tmpreg |= (uint16_t)((uint32_t)SPI_InitStruct->SPI_Direction | SPI_InitStruct->SPI_Mode |
 8002670:	4313      	orrs	r3, r2
 8002672:	b29a      	uxth	r2, r3
                  SPI_InitStruct->SPI_DataSize | SPI_InitStruct->SPI_CPOL |  
                  SPI_InitStruct->SPI_CPHA | SPI_InitStruct->SPI_NSS |  
 8002674:	683b      	ldr	r3, [r7, #0]
 8002676:	891b      	ldrh	r3, [r3, #8]
  /* Set SSM, SSI and MSTR bits according to SPI_Mode and SPI_NSS values */
  /* Set LSBFirst bit according to SPI_FirstBit value */
  /* Set BR bits according to SPI_BaudRatePrescaler value */
  /* Set CPOL bit according to SPI_CPOL value */
  /* Set CPHA bit according to SPI_CPHA value */
  tmpreg |= (uint16_t)((uint32_t)SPI_InitStruct->SPI_Direction | SPI_InitStruct->SPI_Mode |
 8002678:	4313      	orrs	r3, r2
 800267a:	b29a      	uxth	r2, r3
                  SPI_InitStruct->SPI_DataSize | SPI_InitStruct->SPI_CPOL |  
                  SPI_InitStruct->SPI_CPHA | SPI_InitStruct->SPI_NSS |  
 800267c:	683b      	ldr	r3, [r7, #0]
 800267e:	895b      	ldrh	r3, [r3, #10]
  /* Set SSM, SSI and MSTR bits according to SPI_Mode and SPI_NSS values */
  /* Set LSBFirst bit according to SPI_FirstBit value */
  /* Set BR bits according to SPI_BaudRatePrescaler value */
  /* Set CPOL bit according to SPI_CPOL value */
  /* Set CPHA bit according to SPI_CPHA value */
  tmpreg |= (uint16_t)((uint32_t)SPI_InitStruct->SPI_Direction | SPI_InitStruct->SPI_Mode |
 8002680:	4313      	orrs	r3, r2
 8002682:	b29a      	uxth	r2, r3
                  SPI_InitStruct->SPI_DataSize | SPI_InitStruct->SPI_CPOL |  
                  SPI_InitStruct->SPI_CPHA | SPI_InitStruct->SPI_NSS |  
                  SPI_InitStruct->SPI_BaudRatePrescaler | SPI_InitStruct->SPI_FirstBit);
 8002684:	683b      	ldr	r3, [r7, #0]
 8002686:	899b      	ldrh	r3, [r3, #12]
  /* Set SSM, SSI and MSTR bits according to SPI_Mode and SPI_NSS values */
  /* Set LSBFirst bit according to SPI_FirstBit value */
  /* Set BR bits according to SPI_BaudRatePrescaler value */
  /* Set CPOL bit according to SPI_CPOL value */
  /* Set CPHA bit according to SPI_CPHA value */
  tmpreg |= (uint16_t)((uint32_t)SPI_InitStruct->SPI_Direction | SPI_InitStruct->SPI_Mode |
 8002688:	4313      	orrs	r3, r2
 800268a:	b29a      	uxth	r2, r3
                  SPI_InitStruct->SPI_DataSize | SPI_InitStruct->SPI_CPOL |  
                  SPI_InitStruct->SPI_CPHA | SPI_InitStruct->SPI_NSS |  
                  SPI_InitStruct->SPI_BaudRatePrescaler | SPI_InitStruct->SPI_FirstBit);
 800268c:	683b      	ldr	r3, [r7, #0]
 800268e:	89db      	ldrh	r3, [r3, #14]
  /* Set SSM, SSI and MSTR bits according to SPI_Mode and SPI_NSS values */
  /* Set LSBFirst bit according to SPI_FirstBit value */
  /* Set BR bits according to SPI_BaudRatePrescaler value */
  /* Set CPOL bit according to SPI_CPOL value */
  /* Set CPHA bit according to SPI_CPHA value */
  tmpreg |= (uint16_t)((uint32_t)SPI_InitStruct->SPI_Direction | SPI_InitStruct->SPI_Mode |
 8002690:	4313      	orrs	r3, r2
 8002692:	b29a      	uxth	r2, r3
 8002694:	89fb      	ldrh	r3, [r7, #14]
 8002696:	4313      	orrs	r3, r2
 8002698:	81fb      	strh	r3, [r7, #14]
                  SPI_InitStruct->SPI_DataSize | SPI_InitStruct->SPI_CPOL |  
                  SPI_InitStruct->SPI_CPHA | SPI_InitStruct->SPI_NSS |  
                  SPI_InitStruct->SPI_BaudRatePrescaler | SPI_InitStruct->SPI_FirstBit);
  /* Write to SPIx CR1 */
  SPIx->CR1 = tmpreg;
 800269a:	687b      	ldr	r3, [r7, #4]
 800269c:	89fa      	ldrh	r2, [r7, #14]
 800269e:	801a      	strh	r2, [r3, #0]

  /* Activate the SPI mode (Reset I2SMOD bit in I2SCFGR register) */
  SPIx->I2SCFGR &= (uint16_t)~((uint16_t)SPI_I2SCFGR_I2SMOD);
 80026a0:	687b      	ldr	r3, [r7, #4]
 80026a2:	8b9b      	ldrh	r3, [r3, #28]
 80026a4:	b29b      	uxth	r3, r3
 80026a6:	f423 6300 	bic.w	r3, r3, #2048	; 0x800
 80026aa:	b29a      	uxth	r2, r3
 80026ac:	687b      	ldr	r3, [r7, #4]
 80026ae:	839a      	strh	r2, [r3, #28]
/*---------------------------- SPIx CRCPOLY Configuration --------------------*/
  /* Write to SPIx CRCPOLY */
  SPIx->CRCPR = SPI_InitStruct->SPI_CRCPolynomial;
 80026b0:	683b      	ldr	r3, [r7, #0]
 80026b2:	8a1a      	ldrh	r2, [r3, #16]
 80026b4:	687b      	ldr	r3, [r7, #4]
 80026b6:	821a      	strh	r2, [r3, #16]
}
 80026b8:	bf00      	nop
 80026ba:	3714      	adds	r7, #20
 80026bc:	46bd      	mov	sp, r7
 80026be:	f85d 7b04 	ldr.w	r7, [sp], #4
 80026c2:	4770      	bx	lr

080026c4 <SPI_Cmd>:
  * @param  NewState: new state of the SPIx peripheral. 
  *          This parameter can be: ENABLE or DISABLE.
  * @retval None
  */
void SPI_Cmd(SPI_TypeDef* SPIx, FunctionalState NewState)
{
 80026c4:	b480      	push	{r7}
 80026c6:	b083      	sub	sp, #12
 80026c8:	af00      	add	r7, sp, #0
 80026ca:	6078      	str	r0, [r7, #4]
 80026cc:	460b      	mov	r3, r1
 80026ce:	70fb      	strb	r3, [r7, #3]
  /* Check the parameters */
  assert_param(IS_SPI_ALL_PERIPH(SPIx));
  assert_param(IS_FUNCTIONAL_STATE(NewState));
  if (NewState != DISABLE)
 80026d0:	78fb      	ldrb	r3, [r7, #3]
 80026d2:	2b00      	cmp	r3, #0
 80026d4:	d008      	beq.n	80026e8 <SPI_Cmd+0x24>
  {
    /* Enable the selected SPI peripheral */
    SPIx->CR1 |= SPI_CR1_SPE;
 80026d6:	687b      	ldr	r3, [r7, #4]
 80026d8:	881b      	ldrh	r3, [r3, #0]
 80026da:	b29b      	uxth	r3, r3
 80026dc:	f043 0340 	orr.w	r3, r3, #64	; 0x40
 80026e0:	b29a      	uxth	r2, r3
 80026e2:	687b      	ldr	r3, [r7, #4]
 80026e4:	801a      	strh	r2, [r3, #0]
  else
  {
    /* Disable the selected SPI peripheral */
    SPIx->CR1 &= (uint16_t)~((uint16_t)SPI_CR1_SPE);
  }
}
 80026e6:	e007      	b.n	80026f8 <SPI_Cmd+0x34>
    SPIx->CR1 |= SPI_CR1_SPE;
  }
  else
  {
    /* Disable the selected SPI peripheral */
    SPIx->CR1 &= (uint16_t)~((uint16_t)SPI_CR1_SPE);
 80026e8:	687b      	ldr	r3, [r7, #4]
 80026ea:	881b      	ldrh	r3, [r3, #0]
 80026ec:	b29b      	uxth	r3, r3
 80026ee:	f023 0340 	bic.w	r3, r3, #64	; 0x40
 80026f2:	b29a      	uxth	r2, r3
 80026f4:	687b      	ldr	r3, [r7, #4]
 80026f6:	801a      	strh	r2, [r3, #0]
  }
}
 80026f8:	bf00      	nop
 80026fa:	370c      	adds	r7, #12
 80026fc:	46bd      	mov	sp, r7
 80026fe:	f85d 7b04 	ldr.w	r7, [sp], #4
 8002702:	4770      	bx	lr

08002704 <SPI_I2S_ReceiveData>:
  * @param  SPIx: To select the SPIx/I2Sx peripheral, where x can be: 1, 2, 3, 4, 5 or 6 
  *         in SPI mode or 2 or 3 in I2S mode or I2Sxext for I2S full duplex mode. 
  * @retval The value of the received data.
  */
uint16_t SPI_I2S_ReceiveData(SPI_TypeDef* SPIx)
{
 8002704:	b480      	push	{r7}
 8002706:	b083      	sub	sp, #12
 8002708:	af00      	add	r7, sp, #0
 800270a:	6078      	str	r0, [r7, #4]
  /* Check the parameters */
  assert_param(IS_SPI_ALL_PERIPH_EXT(SPIx));
  
  /* Return the data in the DR register */
  return SPIx->DR;
 800270c:	687b      	ldr	r3, [r7, #4]
 800270e:	899b      	ldrh	r3, [r3, #12]
 8002710:	b29b      	uxth	r3, r3
}
 8002712:	4618      	mov	r0, r3
 8002714:	370c      	adds	r7, #12
 8002716:	46bd      	mov	sp, r7
 8002718:	f85d 7b04 	ldr.w	r7, [sp], #4
 800271c:	4770      	bx	lr
 800271e:	bf00      	nop

08002720 <SPI_I2S_SendData>:
  *         in SPI mode or 2 or 3 in I2S mode or I2Sxext for I2S full duplex mode.     
  * @param  Data: Data to be transmitted.
  * @retval None
  */
void SPI_I2S_SendData(SPI_TypeDef* SPIx, uint16_t Data)
{
 8002720:	b480      	push	{r7}
 8002722:	b083      	sub	sp, #12
 8002724:	af00      	add	r7, sp, #0
 8002726:	6078      	str	r0, [r7, #4]
 8002728:	460b      	mov	r3, r1
 800272a:	807b      	strh	r3, [r7, #2]
  /* Check the parameters */
  assert_param(IS_SPI_ALL_PERIPH_EXT(SPIx));
  
  /* Write in the DR register the data to be sent */
  SPIx->DR = Data;
 800272c:	687b      	ldr	r3, [r7, #4]
 800272e:	887a      	ldrh	r2, [r7, #2]
 8002730:	819a      	strh	r2, [r3, #12]
}
 8002732:	bf00      	nop
 8002734:	370c      	adds	r7, #12
 8002736:	46bd      	mov	sp, r7
 8002738:	f85d 7b04 	ldr.w	r7, [sp], #4
 800273c:	4770      	bx	lr
 800273e:	bf00      	nop

08002740 <SPI_I2S_GetFlagStatus>:
  *            @arg I2S_FLAG_UDR: Underrun Error flag.
  *            @arg I2S_FLAG_CHSIDE: Channel Side flag.  
  * @retval The new state of SPI_I2S_FLAG (SET or RESET).
  */
FlagStatus SPI_I2S_GetFlagStatus(SPI_TypeDef* SPIx, uint16_t SPI_I2S_FLAG)
{
 8002740:	b480      	push	{r7}
 8002742:	b085      	sub	sp, #20
 8002744:	af00      	add	r7, sp, #0
 8002746:	6078      	str	r0, [r7, #4]
 8002748:	460b      	mov	r3, r1
 800274a:	807b      	strh	r3, [r7, #2]
  FlagStatus bitstatus = RESET;
 800274c:	2300      	movs	r3, #0
 800274e:	73fb      	strb	r3, [r7, #15]
  /* Check the parameters */
  assert_param(IS_SPI_ALL_PERIPH_EXT(SPIx));
  assert_param(IS_SPI_I2S_GET_FLAG(SPI_I2S_FLAG));
  
  /* Check the status of the specified SPI flag */
  if ((SPIx->SR & SPI_I2S_FLAG) != (uint16_t)RESET)
 8002750:	687b      	ldr	r3, [r7, #4]
 8002752:	891b      	ldrh	r3, [r3, #8]
 8002754:	b29a      	uxth	r2, r3
 8002756:	887b      	ldrh	r3, [r7, #2]
 8002758:	4013      	ands	r3, r2
 800275a:	b29b      	uxth	r3, r3
 800275c:	2b00      	cmp	r3, #0
 800275e:	d002      	beq.n	8002766 <SPI_I2S_GetFlagStatus+0x26>
  {
    /* SPI_I2S_FLAG is set */
    bitstatus = SET;
 8002760:	2301      	movs	r3, #1
 8002762:	73fb      	strb	r3, [r7, #15]
 8002764:	e001      	b.n	800276a <SPI_I2S_GetFlagStatus+0x2a>
  }
  else
  {
    /* SPI_I2S_FLAG is reset */
    bitstatus = RESET;
 8002766:	2300      	movs	r3, #0
 8002768:	73fb      	strb	r3, [r7, #15]
  }
  /* Return the SPI_I2S_FLAG status */
  return  bitstatus;
 800276a:	7bfb      	ldrb	r3, [r7, #15]
}
 800276c:	4618      	mov	r0, r3
 800276e:	3714      	adds	r7, #20
 8002770:	46bd      	mov	sp, r7
 8002772:	f85d 7b04 	ldr.w	r7, [sp], #4
 8002776:	4770      	bx	lr

08002778 <RCC_AHB1PeriphClockCmd>:
  * @param  NewState: new state of the specified peripheral clock.
  *          This parameter can be: ENABLE or DISABLE.
  * @retval None
  */
void RCC_AHB1PeriphClockCmd(uint32_t RCC_AHB1Periph, FunctionalState NewState)
{
 8002778:	b480      	push	{r7}
 800277a:	b083      	sub	sp, #12
 800277c:	af00      	add	r7, sp, #0
 800277e:	6078      	str	r0, [r7, #4]
 8002780:	460b      	mov	r3, r1
 8002782:	70fb      	strb	r3, [r7, #3]
  /* Check the parameters */
  assert_param(IS_RCC_AHB1_CLOCK_PERIPH(RCC_AHB1Periph));

  assert_param(IS_FUNCTIONAL_STATE(NewState));
  if (NewState != DISABLE)
 8002784:	78fb      	ldrb	r3, [r7, #3]
 8002786:	2b00      	cmp	r3, #0
 8002788:	d006      	beq.n	8002798 <RCC_AHB1PeriphClockCmd+0x20>
  {
    RCC->AHB1ENR |= RCC_AHB1Periph;
 800278a:	490a      	ldr	r1, [pc, #40]	; (80027b4 <RCC_AHB1PeriphClockCmd+0x3c>)
 800278c:	4b09      	ldr	r3, [pc, #36]	; (80027b4 <RCC_AHB1PeriphClockCmd+0x3c>)
 800278e:	6b1a      	ldr	r2, [r3, #48]	; 0x30
 8002790:	687b      	ldr	r3, [r7, #4]
 8002792:	4313      	orrs	r3, r2
 8002794:	630b      	str	r3, [r1, #48]	; 0x30
  }
  else
  {
    RCC->AHB1ENR &= ~RCC_AHB1Periph;
  }
}
 8002796:	e006      	b.n	80027a6 <RCC_AHB1PeriphClockCmd+0x2e>
  {
    RCC->AHB1ENR |= RCC_AHB1Periph;
  }
  else
  {
    RCC->AHB1ENR &= ~RCC_AHB1Periph;
 8002798:	4906      	ldr	r1, [pc, #24]	; (80027b4 <RCC_AHB1PeriphClockCmd+0x3c>)
 800279a:	4b06      	ldr	r3, [pc, #24]	; (80027b4 <RCC_AHB1PeriphClockCmd+0x3c>)
 800279c:	6b1a      	ldr	r2, [r3, #48]	; 0x30
 800279e:	687b      	ldr	r3, [r7, #4]
 80027a0:	43db      	mvns	r3, r3
 80027a2:	4013      	ands	r3, r2
 80027a4:	630b      	str	r3, [r1, #48]	; 0x30
  }
}
 80027a6:	bf00      	nop
 80027a8:	370c      	adds	r7, #12
 80027aa:	46bd      	mov	sp, r7
 80027ac:	f85d 7b04 	ldr.w	r7, [sp], #4
 80027b0:	4770      	bx	lr
 80027b2:	bf00      	nop
 80027b4:	40023800 	.word	0x40023800

080027b8 <RCC_APB1PeriphClockCmd>:
  * @param  NewState: new state of the specified peripheral clock.
  *          This parameter can be: ENABLE or DISABLE.
  * @retval None
  */
void RCC_APB1PeriphClockCmd(uint32_t RCC_APB1Periph, FunctionalState NewState)
{
 80027b8:	b480      	push	{r7}
 80027ba:	b083      	sub	sp, #12
 80027bc:	af00      	add	r7, sp, #0
 80027be:	6078      	str	r0, [r7, #4]
 80027c0:	460b      	mov	r3, r1
 80027c2:	70fb      	strb	r3, [r7, #3]
  /* Check the parameters */
  assert_param(IS_RCC_APB1_PERIPH(RCC_APB1Periph));  
  assert_param(IS_FUNCTIONAL_STATE(NewState));

  if (NewState != DISABLE)
 80027c4:	78fb      	ldrb	r3, [r7, #3]
 80027c6:	2b00      	cmp	r3, #0
 80027c8:	d006      	beq.n	80027d8 <RCC_APB1PeriphClockCmd+0x20>
  {
    RCC->APB1ENR |= RCC_APB1Periph;
 80027ca:	490a      	ldr	r1, [pc, #40]	; (80027f4 <RCC_APB1PeriphClockCmd+0x3c>)
 80027cc:	4b09      	ldr	r3, [pc, #36]	; (80027f4 <RCC_APB1PeriphClockCmd+0x3c>)
 80027ce:	6c1a      	ldr	r2, [r3, #64]	; 0x40
 80027d0:	687b      	ldr	r3, [r7, #4]
 80027d2:	4313      	orrs	r3, r2
 80027d4:	640b      	str	r3, [r1, #64]	; 0x40
  }
  else
  {
    RCC->APB1ENR &= ~RCC_APB1Periph;
  }
}
 80027d6:	e006      	b.n	80027e6 <RCC_APB1PeriphClockCmd+0x2e>
  {
    RCC->APB1ENR |= RCC_APB1Periph;
  }
  else
  {
    RCC->APB1ENR &= ~RCC_APB1Periph;
 80027d8:	4906      	ldr	r1, [pc, #24]	; (80027f4 <RCC_APB1PeriphClockCmd+0x3c>)
 80027da:	4b06      	ldr	r3, [pc, #24]	; (80027f4 <RCC_APB1PeriphClockCmd+0x3c>)
 80027dc:	6c1a      	ldr	r2, [r3, #64]	; 0x40
 80027de:	687b      	ldr	r3, [r7, #4]
 80027e0:	43db      	mvns	r3, r3
 80027e2:	4013      	ands	r3, r2
 80027e4:	640b      	str	r3, [r1, #64]	; 0x40
  }
}
 80027e6:	bf00      	nop
 80027e8:	370c      	adds	r7, #12
 80027ea:	46bd      	mov	sp, r7
 80027ec:	f85d 7b04 	ldr.w	r7, [sp], #4
 80027f0:	4770      	bx	lr
 80027f2:	bf00      	nop
 80027f4:	40023800 	.word	0x40023800

080027f8 <RCC_APB2PeriphClockCmd>:
  * @param  NewState: new state of the specified peripheral clock.
  *          This parameter can be: ENABLE or DISABLE.
  * @retval None
  */
void RCC_APB2PeriphClockCmd(uint32_t RCC_APB2Periph, FunctionalState NewState)
{
 80027f8:	b480      	push	{r7}
 80027fa:	b083      	sub	sp, #12
 80027fc:	af00      	add	r7, sp, #0
 80027fe:	6078      	str	r0, [r7, #4]
 8002800:	460b      	mov	r3, r1
 8002802:	70fb      	strb	r3, [r7, #3]
  /* Check the parameters */
  assert_param(IS_RCC_APB2_PERIPH(RCC_APB2Periph));
  assert_param(IS_FUNCTIONAL_STATE(NewState));

  if (NewState != DISABLE)
 8002804:	78fb      	ldrb	r3, [r7, #3]
 8002806:	2b00      	cmp	r3, #0
 8002808:	d006      	beq.n	8002818 <RCC_APB2PeriphClockCmd+0x20>
  {
    RCC->APB2ENR |= RCC_APB2Periph;
 800280a:	490a      	ldr	r1, [pc, #40]	; (8002834 <RCC_APB2PeriphClockCmd+0x3c>)
 800280c:	4b09      	ldr	r3, [pc, #36]	; (8002834 <RCC_APB2PeriphClockCmd+0x3c>)
 800280e:	6c5a      	ldr	r2, [r3, #68]	; 0x44
 8002810:	687b      	ldr	r3, [r7, #4]
 8002812:	4313      	orrs	r3, r2
 8002814:	644b      	str	r3, [r1, #68]	; 0x44
  }
  else
  {
    RCC->APB2ENR &= ~RCC_APB2Periph;
  }
}
 8002816:	e006      	b.n	8002826 <RCC_APB2PeriphClockCmd+0x2e>
  {
    RCC->APB2ENR |= RCC_APB2Periph;
  }
  else
  {
    RCC->APB2ENR &= ~RCC_APB2Periph;
 8002818:	4906      	ldr	r1, [pc, #24]	; (8002834 <RCC_APB2PeriphClockCmd+0x3c>)
 800281a:	4b06      	ldr	r3, [pc, #24]	; (8002834 <RCC_APB2PeriphClockCmd+0x3c>)
 800281c:	6c5a      	ldr	r2, [r3, #68]	; 0x44
 800281e:	687b      	ldr	r3, [r7, #4]
 8002820:	43db      	mvns	r3, r3
 8002822:	4013      	ands	r3, r2
 8002824:	644b      	str	r3, [r1, #68]	; 0x44
  }
}
 8002826:	bf00      	nop
 8002828:	370c      	adds	r7, #12
 800282a:	46bd      	mov	sp, r7
 800282c:	f85d 7b04 	ldr.w	r7, [sp], #4
 8002830:	4770      	bx	lr
 8002832:	bf00      	nop
 8002834:	40023800 	.word	0x40023800

08002838 <GPIO_Init>:
  * @param  GPIO_InitStruct: pointer to a GPIO_InitTypeDef structure that contains
  *         the configuration information for the specified GPIO peripheral.
  * @retval None
  */
void GPIO_Init(GPIO_TypeDef* GPIOx, GPIO_InitTypeDef* GPIO_InitStruct)
{
 8002838:	b480      	push	{r7}
 800283a:	b087      	sub	sp, #28
 800283c:	af00      	add	r7, sp, #0
 800283e:	6078      	str	r0, [r7, #4]
 8002840:	6039      	str	r1, [r7, #0]
  uint32_t pinpos = 0x00, pos = 0x00 , currentpin = 0x00;
 8002842:	2300      	movs	r3, #0
 8002844:	617b      	str	r3, [r7, #20]
 8002846:	2300      	movs	r3, #0
 8002848:	613b      	str	r3, [r7, #16]
 800284a:	2300      	movs	r3, #0
 800284c:	60fb      	str	r3, [r7, #12]
  assert_param(IS_GPIO_MODE(GPIO_InitStruct->GPIO_Mode));
  assert_param(IS_GPIO_PUPD(GPIO_InitStruct->GPIO_PuPd));

  /* ------------------------- Configure the port pins ---------------- */
  /*-- GPIO Mode Configuration --*/
  for (pinpos = 0x00; pinpos < 0x10; pinpos++)
 800284e:	2300      	movs	r3, #0
 8002850:	617b      	str	r3, [r7, #20]
 8002852:	e076      	b.n	8002942 <GPIO_Init+0x10a>
  {
    pos = ((uint32_t)0x01) << pinpos;
 8002854:	2201      	movs	r2, #1
 8002856:	697b      	ldr	r3, [r7, #20]
 8002858:	fa02 f303 	lsl.w	r3, r2, r3
 800285c:	613b      	str	r3, [r7, #16]
    /* Get the port pins position */
    currentpin = (GPIO_InitStruct->GPIO_Pin) & pos;
 800285e:	683b      	ldr	r3, [r7, #0]
 8002860:	681a      	ldr	r2, [r3, #0]
 8002862:	693b      	ldr	r3, [r7, #16]
 8002864:	4013      	ands	r3, r2
 8002866:	60fb      	str	r3, [r7, #12]

    if (currentpin == pos)
 8002868:	68fa      	ldr	r2, [r7, #12]
 800286a:	693b      	ldr	r3, [r7, #16]
 800286c:	429a      	cmp	r2, r3
 800286e:	d165      	bne.n	800293c <GPIO_Init+0x104>
    {
      GPIOx->MODER  &= ~(GPIO_MODER_MODER0 << (pinpos * 2));
 8002870:	687b      	ldr	r3, [r7, #4]
 8002872:	681a      	ldr	r2, [r3, #0]
 8002874:	697b      	ldr	r3, [r7, #20]
 8002876:	005b      	lsls	r3, r3, #1
 8002878:	2103      	movs	r1, #3
 800287a:	fa01 f303 	lsl.w	r3, r1, r3
 800287e:	43db      	mvns	r3, r3
 8002880:	401a      	ands	r2, r3
 8002882:	687b      	ldr	r3, [r7, #4]
 8002884:	601a      	str	r2, [r3, #0]
      GPIOx->MODER |= (((uint32_t)GPIO_InitStruct->GPIO_Mode) << (pinpos * 2));
 8002886:	687b      	ldr	r3, [r7, #4]
 8002888:	681a      	ldr	r2, [r3, #0]
 800288a:	683b      	ldr	r3, [r7, #0]
 800288c:	791b      	ldrb	r3, [r3, #4]
 800288e:	4619      	mov	r1, r3
 8002890:	697b      	ldr	r3, [r7, #20]
 8002892:	005b      	lsls	r3, r3, #1
 8002894:	fa01 f303 	lsl.w	r3, r1, r3
 8002898:	431a      	orrs	r2, r3
 800289a:	687b      	ldr	r3, [r7, #4]
 800289c:	601a      	str	r2, [r3, #0]

      if ((GPIO_InitStruct->GPIO_Mode == GPIO_Mode_OUT) || (GPIO_InitStruct->GPIO_Mode == GPIO_Mode_AF))
 800289e:	683b      	ldr	r3, [r7, #0]
 80028a0:	791b      	ldrb	r3, [r3, #4]
 80028a2:	2b01      	cmp	r3, #1
 80028a4:	d003      	beq.n	80028ae <GPIO_Init+0x76>
 80028a6:	683b      	ldr	r3, [r7, #0]
 80028a8:	791b      	ldrb	r3, [r3, #4]
 80028aa:	2b02      	cmp	r3, #2
 80028ac:	d12e      	bne.n	800290c <GPIO_Init+0xd4>
      {
        /* Check Speed mode parameters */
        assert_param(IS_GPIO_SPEED(GPIO_InitStruct->GPIO_Speed));

        /* Speed mode configuration */
        GPIOx->OSPEEDR &= ~(GPIO_OSPEEDER_OSPEEDR0 << (pinpos * 2));
 80028ae:	687b      	ldr	r3, [r7, #4]
 80028b0:	689a      	ldr	r2, [r3, #8]
 80028b2:	697b      	ldr	r3, [r7, #20]
 80028b4:	005b      	lsls	r3, r3, #1
 80028b6:	2103      	movs	r1, #3
 80028b8:	fa01 f303 	lsl.w	r3, r1, r3
 80028bc:	43db      	mvns	r3, r3
 80028be:	401a      	ands	r2, r3
 80028c0:	687b      	ldr	r3, [r7, #4]
 80028c2:	609a      	str	r2, [r3, #8]
        GPIOx->OSPEEDR |= ((uint32_t)(GPIO_InitStruct->GPIO_Speed) << (pinpos * 2));
 80028c4:	687b      	ldr	r3, [r7, #4]
 80028c6:	689a      	ldr	r2, [r3, #8]
 80028c8:	683b      	ldr	r3, [r7, #0]
 80028ca:	795b      	ldrb	r3, [r3, #5]
 80028cc:	4619      	mov	r1, r3
 80028ce:	697b      	ldr	r3, [r7, #20]
 80028d0:	005b      	lsls	r3, r3, #1
 80028d2:	fa01 f303 	lsl.w	r3, r1, r3
 80028d6:	431a      	orrs	r2, r3
 80028d8:	687b      	ldr	r3, [r7, #4]
 80028da:	609a      	str	r2, [r3, #8]

        /* Check Output mode parameters */
        assert_param(IS_GPIO_OTYPE(GPIO_InitStruct->GPIO_OType));

        /* Output mode configuration*/
        GPIOx->OTYPER  &= ~((GPIO_OTYPER_OT_0) << ((uint16_t)pinpos)) ;
 80028dc:	687b      	ldr	r3, [r7, #4]
 80028de:	685a      	ldr	r2, [r3, #4]
 80028e0:	697b      	ldr	r3, [r7, #20]
 80028e2:	b29b      	uxth	r3, r3
 80028e4:	2101      	movs	r1, #1
 80028e6:	fa01 f303 	lsl.w	r3, r1, r3
 80028ea:	43db      	mvns	r3, r3
 80028ec:	401a      	ands	r2, r3
 80028ee:	687b      	ldr	r3, [r7, #4]
 80028f0:	605a      	str	r2, [r3, #4]
        GPIOx->OTYPER |= (uint16_t)(((uint16_t)GPIO_InitStruct->GPIO_OType) << ((uint16_t)pinpos));
 80028f2:	687b      	ldr	r3, [r7, #4]
 80028f4:	685a      	ldr	r2, [r3, #4]
 80028f6:	683b      	ldr	r3, [r7, #0]
 80028f8:	799b      	ldrb	r3, [r3, #6]
 80028fa:	4619      	mov	r1, r3
 80028fc:	697b      	ldr	r3, [r7, #20]
 80028fe:	b29b      	uxth	r3, r3
 8002900:	fa01 f303 	lsl.w	r3, r1, r3
 8002904:	b29b      	uxth	r3, r3
 8002906:	431a      	orrs	r2, r3
 8002908:	687b      	ldr	r3, [r7, #4]
 800290a:	605a      	str	r2, [r3, #4]
      }

      /* Pull-up Pull down resistor configuration*/
      GPIOx->PUPDR &= ~(GPIO_PUPDR_PUPDR0 << ((uint16_t)pinpos * 2));
 800290c:	687b      	ldr	r3, [r7, #4]
 800290e:	68da      	ldr	r2, [r3, #12]
 8002910:	697b      	ldr	r3, [r7, #20]
 8002912:	b29b      	uxth	r3, r3
 8002914:	005b      	lsls	r3, r3, #1
 8002916:	2103      	movs	r1, #3
 8002918:	fa01 f303 	lsl.w	r3, r1, r3
 800291c:	43db      	mvns	r3, r3
 800291e:	401a      	ands	r2, r3
 8002920:	687b      	ldr	r3, [r7, #4]
 8002922:	60da      	str	r2, [r3, #12]
      GPIOx->PUPDR |= (((uint32_t)GPIO_InitStruct->GPIO_PuPd) << (pinpos * 2));
 8002924:	687b      	ldr	r3, [r7, #4]
 8002926:	68da      	ldr	r2, [r3, #12]
 8002928:	683b      	ldr	r3, [r7, #0]
 800292a:	79db      	ldrb	r3, [r3, #7]
 800292c:	4619      	mov	r1, r3
 800292e:	697b      	ldr	r3, [r7, #20]
 8002930:	005b      	lsls	r3, r3, #1
 8002932:	fa01 f303 	lsl.w	r3, r1, r3
 8002936:	431a      	orrs	r2, r3
 8002938:	687b      	ldr	r3, [r7, #4]
 800293a:	60da      	str	r2, [r3, #12]
  assert_param(IS_GPIO_MODE(GPIO_InitStruct->GPIO_Mode));
  assert_param(IS_GPIO_PUPD(GPIO_InitStruct->GPIO_PuPd));

  /* ------------------------- Configure the port pins ---------------- */
  /*-- GPIO Mode Configuration --*/
  for (pinpos = 0x00; pinpos < 0x10; pinpos++)
 800293c:	697b      	ldr	r3, [r7, #20]
 800293e:	3301      	adds	r3, #1
 8002940:	617b      	str	r3, [r7, #20]
 8002942:	697b      	ldr	r3, [r7, #20]
 8002944:	2b0f      	cmp	r3, #15
 8002946:	d985      	bls.n	8002854 <GPIO_Init+0x1c>
      /* Pull-up Pull down resistor configuration*/
      GPIOx->PUPDR &= ~(GPIO_PUPDR_PUPDR0 << ((uint16_t)pinpos * 2));
      GPIOx->PUPDR |= (((uint32_t)GPIO_InitStruct->GPIO_PuPd) << (pinpos * 2));
    }
  }
}
 8002948:	bf00      	nop
 800294a:	371c      	adds	r7, #28
 800294c:	46bd      	mov	sp, r7
 800294e:	f85d 7b04 	ldr.w	r7, [sp], #4
 8002952:	4770      	bx	lr

08002954 <GPIO_SetBits>:
  * @param  GPIO_Pin: specifies the port bits to be written.
  *          This parameter can be any combination of GPIO_Pin_x where x can be (0..15).
  * @retval None
  */
void GPIO_SetBits(GPIO_TypeDef* GPIOx, uint16_t GPIO_Pin)
{
 8002954:	b480      	push	{r7}
 8002956:	b083      	sub	sp, #12
 8002958:	af00      	add	r7, sp, #0
 800295a:	6078      	str	r0, [r7, #4]
 800295c:	460b      	mov	r3, r1
 800295e:	807b      	strh	r3, [r7, #2]
  /* Check the parameters */
  assert_param(IS_GPIO_ALL_PERIPH(GPIOx));
  assert_param(IS_GPIO_PIN(GPIO_Pin));

  GPIOx->BSRRL = GPIO_Pin;
 8002960:	687b      	ldr	r3, [r7, #4]
 8002962:	887a      	ldrh	r2, [r7, #2]
 8002964:	831a      	strh	r2, [r3, #24]
}
 8002966:	bf00      	nop
 8002968:	370c      	adds	r7, #12
 800296a:	46bd      	mov	sp, r7
 800296c:	f85d 7b04 	ldr.w	r7, [sp], #4
 8002970:	4770      	bx	lr
 8002972:	bf00      	nop

08002974 <GPIO_ResetBits>:
  * @param  GPIO_Pin: specifies the port bits to be written.
  *          This parameter can be any combination of GPIO_Pin_x where x can be (0..15).
  * @retval None
  */
void GPIO_ResetBits(GPIO_TypeDef* GPIOx, uint16_t GPIO_Pin)
{
 8002974:	b480      	push	{r7}
 8002976:	b083      	sub	sp, #12
 8002978:	af00      	add	r7, sp, #0
 800297a:	6078      	str	r0, [r7, #4]
 800297c:	460b      	mov	r3, r1
 800297e:	807b      	strh	r3, [r7, #2]
  /* Check the parameters */
  assert_param(IS_GPIO_ALL_PERIPH(GPIOx));
  assert_param(IS_GPIO_PIN(GPIO_Pin));

  GPIOx->BSRRH = GPIO_Pin;
 8002980:	687b      	ldr	r3, [r7, #4]
 8002982:	887a      	ldrh	r2, [r7, #2]
 8002984:	835a      	strh	r2, [r3, #26]
}
 8002986:	bf00      	nop
 8002988:	370c      	adds	r7, #12
 800298a:	46bd      	mov	sp, r7
 800298c:	f85d 7b04 	ldr.w	r7, [sp], #4
 8002990:	4770      	bx	lr
 8002992:	bf00      	nop

08002994 <GPIO_PinAFConfig>:
  *            @arg GPIO_AF_DCMI: Connect DCMI pins to AF13 
  *            @arg GPIO_AF_EVENTOUT: Connect EVENTOUT pins to AF15
  * @retval None
  */
void GPIO_PinAFConfig(GPIO_TypeDef* GPIOx, uint16_t GPIO_PinSource, uint8_t GPIO_AF)
{
 8002994:	b480      	push	{r7}
 8002996:	b085      	sub	sp, #20
 8002998:	af00      	add	r7, sp, #0
 800299a:	6078      	str	r0, [r7, #4]
 800299c:	460b      	mov	r3, r1
 800299e:	807b      	strh	r3, [r7, #2]
 80029a0:	4613      	mov	r3, r2
 80029a2:	707b      	strb	r3, [r7, #1]
  uint32_t temp = 0x00;
 80029a4:	2300      	movs	r3, #0
 80029a6:	60fb      	str	r3, [r7, #12]
  uint32_t temp_2 = 0x00;
 80029a8:	2300      	movs	r3, #0
 80029aa:	60bb      	str	r3, [r7, #8]
  /* Check the parameters */
  assert_param(IS_GPIO_ALL_PERIPH(GPIOx));
  assert_param(IS_GPIO_PIN_SOURCE(GPIO_PinSource));
  assert_param(IS_GPIO_AF(GPIO_AF));
  
  temp = ((uint32_t)(GPIO_AF) << ((uint32_t)((uint32_t)GPIO_PinSource & (uint32_t)0x07) * 4)) ;
 80029ac:	787a      	ldrb	r2, [r7, #1]
 80029ae:	887b      	ldrh	r3, [r7, #2]
 80029b0:	f003 0307 	and.w	r3, r3, #7
 80029b4:	009b      	lsls	r3, r3, #2
 80029b6:	fa02 f303 	lsl.w	r3, r2, r3
 80029ba:	60fb      	str	r3, [r7, #12]
  GPIOx->AFR[GPIO_PinSource >> 0x03] &= ~((uint32_t)0xF << ((uint32_t)((uint32_t)GPIO_PinSource & (uint32_t)0x07) * 4)) ;
 80029bc:	887b      	ldrh	r3, [r7, #2]
 80029be:	08db      	lsrs	r3, r3, #3
 80029c0:	b29b      	uxth	r3, r3
 80029c2:	4618      	mov	r0, r3
 80029c4:	887b      	ldrh	r3, [r7, #2]
 80029c6:	08db      	lsrs	r3, r3, #3
 80029c8:	b29b      	uxth	r3, r3
 80029ca:	461a      	mov	r2, r3
 80029cc:	687b      	ldr	r3, [r7, #4]
 80029ce:	3208      	adds	r2, #8
 80029d0:	f853 2022 	ldr.w	r2, [r3, r2, lsl #2]
 80029d4:	887b      	ldrh	r3, [r7, #2]
 80029d6:	f003 0307 	and.w	r3, r3, #7
 80029da:	009b      	lsls	r3, r3, #2
 80029dc:	210f      	movs	r1, #15
 80029de:	fa01 f303 	lsl.w	r3, r1, r3
 80029e2:	43db      	mvns	r3, r3
 80029e4:	ea02 0103 	and.w	r1, r2, r3
 80029e8:	687b      	ldr	r3, [r7, #4]
 80029ea:	f100 0208 	add.w	r2, r0, #8
 80029ee:	f843 1022 	str.w	r1, [r3, r2, lsl #2]
  temp_2 = GPIOx->AFR[GPIO_PinSource >> 0x03] | temp;
 80029f2:	887b      	ldrh	r3, [r7, #2]
 80029f4:	08db      	lsrs	r3, r3, #3
 80029f6:	b29b      	uxth	r3, r3
 80029f8:	461a      	mov	r2, r3
 80029fa:	687b      	ldr	r3, [r7, #4]
 80029fc:	3208      	adds	r2, #8
 80029fe:	f853 2022 	ldr.w	r2, [r3, r2, lsl #2]
 8002a02:	68fb      	ldr	r3, [r7, #12]
 8002a04:	4313      	orrs	r3, r2
 8002a06:	60bb      	str	r3, [r7, #8]
  GPIOx->AFR[GPIO_PinSource >> 0x03] = temp_2;
 8002a08:	887b      	ldrh	r3, [r7, #2]
 8002a0a:	08db      	lsrs	r3, r3, #3
 8002a0c:	b29b      	uxth	r3, r3
 8002a0e:	461a      	mov	r2, r3
 8002a10:	687b      	ldr	r3, [r7, #4]
 8002a12:	3208      	adds	r2, #8
 8002a14:	68b9      	ldr	r1, [r7, #8]
 8002a16:	f843 1022 	str.w	r1, [r3, r2, lsl #2]
}
 8002a1a:	bf00      	nop
 8002a1c:	3714      	adds	r7, #20
 8002a1e:	46bd      	mov	sp, r7
 8002a20:	f85d 7b04 	ldr.w	r7, [sp], #4
 8002a24:	4770      	bx	lr
 8002a26:	bf00      	nop

08002a28 <EXTI_Init>:
  * @param  EXTI_InitStruct: pointer to a EXTI_InitTypeDef structure
  *         that contains the configuration information for the EXTI peripheral.
  * @retval None
  */
void EXTI_Init(EXTI_InitTypeDef* EXTI_InitStruct)
{
 8002a28:	b480      	push	{r7}
 8002a2a:	b085      	sub	sp, #20
 8002a2c:	af00      	add	r7, sp, #0
 8002a2e:	6078      	str	r0, [r7, #4]
  uint32_t tmp = 0;
 8002a30:	2300      	movs	r3, #0
 8002a32:	60fb      	str	r3, [r7, #12]
  assert_param(IS_EXTI_MODE(EXTI_InitStruct->EXTI_Mode));
  assert_param(IS_EXTI_TRIGGER(EXTI_InitStruct->EXTI_Trigger));
  assert_param(IS_EXTI_LINE(EXTI_InitStruct->EXTI_Line));  
  assert_param(IS_FUNCTIONAL_STATE(EXTI_InitStruct->EXTI_LineCmd));

  tmp = (uint32_t)EXTI_BASE;
 8002a34:	4b34      	ldr	r3, [pc, #208]	; (8002b08 <EXTI_Init+0xe0>)
 8002a36:	60fb      	str	r3, [r7, #12]
     
  if (EXTI_InitStruct->EXTI_LineCmd != DISABLE)
 8002a38:	687b      	ldr	r3, [r7, #4]
 8002a3a:	799b      	ldrb	r3, [r3, #6]
 8002a3c:	2b00      	cmp	r3, #0
 8002a3e:	d04f      	beq.n	8002ae0 <EXTI_Init+0xb8>
  {
    /* Clear EXTI line configuration */
    EXTI->IMR &= ~EXTI_InitStruct->EXTI_Line;
 8002a40:	4931      	ldr	r1, [pc, #196]	; (8002b08 <EXTI_Init+0xe0>)
 8002a42:	4b31      	ldr	r3, [pc, #196]	; (8002b08 <EXTI_Init+0xe0>)
 8002a44:	681a      	ldr	r2, [r3, #0]
 8002a46:	687b      	ldr	r3, [r7, #4]
 8002a48:	681b      	ldr	r3, [r3, #0]
 8002a4a:	43db      	mvns	r3, r3
 8002a4c:	4013      	ands	r3, r2
 8002a4e:	600b      	str	r3, [r1, #0]
    EXTI->EMR &= ~EXTI_InitStruct->EXTI_Line;
 8002a50:	492d      	ldr	r1, [pc, #180]	; (8002b08 <EXTI_Init+0xe0>)
 8002a52:	4b2d      	ldr	r3, [pc, #180]	; (8002b08 <EXTI_Init+0xe0>)
 8002a54:	685a      	ldr	r2, [r3, #4]
 8002a56:	687b      	ldr	r3, [r7, #4]
 8002a58:	681b      	ldr	r3, [r3, #0]
 8002a5a:	43db      	mvns	r3, r3
 8002a5c:	4013      	ands	r3, r2
 8002a5e:	604b      	str	r3, [r1, #4]
    
    tmp += EXTI_InitStruct->EXTI_Mode;
 8002a60:	687b      	ldr	r3, [r7, #4]
 8002a62:	791b      	ldrb	r3, [r3, #4]
 8002a64:	461a      	mov	r2, r3
 8002a66:	68fb      	ldr	r3, [r7, #12]
 8002a68:	4413      	add	r3, r2
 8002a6a:	60fb      	str	r3, [r7, #12]

    *(__IO uint32_t *) tmp |= EXTI_InitStruct->EXTI_Line;
 8002a6c:	68fb      	ldr	r3, [r7, #12]
 8002a6e:	68fa      	ldr	r2, [r7, #12]
 8002a70:	6811      	ldr	r1, [r2, #0]
 8002a72:	687a      	ldr	r2, [r7, #4]
 8002a74:	6812      	ldr	r2, [r2, #0]
 8002a76:	430a      	orrs	r2, r1
 8002a78:	601a      	str	r2, [r3, #0]

    /* Clear Rising Falling edge configuration */
    EXTI->RTSR &= ~EXTI_InitStruct->EXTI_Line;
 8002a7a:	4923      	ldr	r1, [pc, #140]	; (8002b08 <EXTI_Init+0xe0>)
 8002a7c:	4b22      	ldr	r3, [pc, #136]	; (8002b08 <EXTI_Init+0xe0>)
 8002a7e:	689a      	ldr	r2, [r3, #8]
 8002a80:	687b      	ldr	r3, [r7, #4]
 8002a82:	681b      	ldr	r3, [r3, #0]
 8002a84:	43db      	mvns	r3, r3
 8002a86:	4013      	ands	r3, r2
 8002a88:	608b      	str	r3, [r1, #8]
    EXTI->FTSR &= ~EXTI_InitStruct->EXTI_Line;
 8002a8a:	491f      	ldr	r1, [pc, #124]	; (8002b08 <EXTI_Init+0xe0>)
 8002a8c:	4b1e      	ldr	r3, [pc, #120]	; (8002b08 <EXTI_Init+0xe0>)
 8002a8e:	68da      	ldr	r2, [r3, #12]
 8002a90:	687b      	ldr	r3, [r7, #4]
 8002a92:	681b      	ldr	r3, [r3, #0]
 8002a94:	43db      	mvns	r3, r3
 8002a96:	4013      	ands	r3, r2
 8002a98:	60cb      	str	r3, [r1, #12]
    
    /* Select the trigger for the selected external interrupts */
    if (EXTI_InitStruct->EXTI_Trigger == EXTI_Trigger_Rising_Falling)
 8002a9a:	687b      	ldr	r3, [r7, #4]
 8002a9c:	795b      	ldrb	r3, [r3, #5]
 8002a9e:	2b10      	cmp	r3, #16
 8002aa0:	d10e      	bne.n	8002ac0 <EXTI_Init+0x98>
    {
      /* Rising Falling edge */
      EXTI->RTSR |= EXTI_InitStruct->EXTI_Line;
 8002aa2:	4919      	ldr	r1, [pc, #100]	; (8002b08 <EXTI_Init+0xe0>)
 8002aa4:	4b18      	ldr	r3, [pc, #96]	; (8002b08 <EXTI_Init+0xe0>)
 8002aa6:	689a      	ldr	r2, [r3, #8]
 8002aa8:	687b      	ldr	r3, [r7, #4]
 8002aaa:	681b      	ldr	r3, [r3, #0]
 8002aac:	4313      	orrs	r3, r2
 8002aae:	608b      	str	r3, [r1, #8]
      EXTI->FTSR |= EXTI_InitStruct->EXTI_Line;
 8002ab0:	4915      	ldr	r1, [pc, #84]	; (8002b08 <EXTI_Init+0xe0>)
 8002ab2:	4b15      	ldr	r3, [pc, #84]	; (8002b08 <EXTI_Init+0xe0>)
 8002ab4:	68da      	ldr	r2, [r3, #12]
 8002ab6:	687b      	ldr	r3, [r7, #4]
 8002ab8:	681b      	ldr	r3, [r3, #0]
 8002aba:	4313      	orrs	r3, r2
 8002abc:	60cb      	str	r3, [r1, #12]
    tmp += EXTI_InitStruct->EXTI_Mode;

    /* Disable the selected external lines */
    *(__IO uint32_t *) tmp &= ~EXTI_InitStruct->EXTI_Line;
  }
}
 8002abe:	e01d      	b.n	8002afc <EXTI_Init+0xd4>
      EXTI->RTSR |= EXTI_InitStruct->EXTI_Line;
      EXTI->FTSR |= EXTI_InitStruct->EXTI_Line;
    }
    else
    {
      tmp = (uint32_t)EXTI_BASE;
 8002ac0:	4b11      	ldr	r3, [pc, #68]	; (8002b08 <EXTI_Init+0xe0>)
 8002ac2:	60fb      	str	r3, [r7, #12]
      tmp += EXTI_InitStruct->EXTI_Trigger;
 8002ac4:	687b      	ldr	r3, [r7, #4]
 8002ac6:	795b      	ldrb	r3, [r3, #5]
 8002ac8:	461a      	mov	r2, r3
 8002aca:	68fb      	ldr	r3, [r7, #12]
 8002acc:	4413      	add	r3, r2
 8002ace:	60fb      	str	r3, [r7, #12]

      *(__IO uint32_t *) tmp |= EXTI_InitStruct->EXTI_Line;
 8002ad0:	68fb      	ldr	r3, [r7, #12]
 8002ad2:	68fa      	ldr	r2, [r7, #12]
 8002ad4:	6811      	ldr	r1, [r2, #0]
 8002ad6:	687a      	ldr	r2, [r7, #4]
 8002ad8:	6812      	ldr	r2, [r2, #0]
 8002ada:	430a      	orrs	r2, r1
 8002adc:	601a      	str	r2, [r3, #0]
    tmp += EXTI_InitStruct->EXTI_Mode;

    /* Disable the selected external lines */
    *(__IO uint32_t *) tmp &= ~EXTI_InitStruct->EXTI_Line;
  }
}
 8002ade:	e00d      	b.n	8002afc <EXTI_Init+0xd4>
      *(__IO uint32_t *) tmp |= EXTI_InitStruct->EXTI_Line;
    }
  }
  else
  {
    tmp += EXTI_InitStruct->EXTI_Mode;
 8002ae0:	687b      	ldr	r3, [r7, #4]
 8002ae2:	791b      	ldrb	r3, [r3, #4]
 8002ae4:	461a      	mov	r2, r3
 8002ae6:	68fb      	ldr	r3, [r7, #12]
 8002ae8:	4413      	add	r3, r2
 8002aea:	60fb      	str	r3, [r7, #12]

    /* Disable the selected external lines */
    *(__IO uint32_t *) tmp &= ~EXTI_InitStruct->EXTI_Line;
 8002aec:	68fb      	ldr	r3, [r7, #12]
 8002aee:	68fa      	ldr	r2, [r7, #12]
 8002af0:	6811      	ldr	r1, [r2, #0]
 8002af2:	687a      	ldr	r2, [r7, #4]
 8002af4:	6812      	ldr	r2, [r2, #0]
 8002af6:	43d2      	mvns	r2, r2
 8002af8:	400a      	ands	r2, r1
 8002afa:	601a      	str	r2, [r3, #0]
  }
}
 8002afc:	bf00      	nop
 8002afe:	3714      	adds	r7, #20
 8002b00:	46bd      	mov	sp, r7
 8002b02:	f85d 7b04 	ldr.w	r7, [sp], #4
 8002b06:	4770      	bx	lr
 8002b08:	40013c00 	.word	0x40013c00

08002b0c <EXTI_ClearITPendingBit>:
  * @param  EXTI_Line: specifies the EXTI lines to clear.
  *          This parameter can be any combination of EXTI_Linex where x can be (0..22)
  * @retval None
  */
void EXTI_ClearITPendingBit(uint32_t EXTI_Line)
{
 8002b0c:	b480      	push	{r7}
 8002b0e:	b083      	sub	sp, #12
 8002b10:	af00      	add	r7, sp, #0
 8002b12:	6078      	str	r0, [r7, #4]
  /* Check the parameters */
  assert_param(IS_EXTI_LINE(EXTI_Line));
  
  EXTI->PR = EXTI_Line;
 8002b14:	4a04      	ldr	r2, [pc, #16]	; (8002b28 <EXTI_ClearITPendingBit+0x1c>)
 8002b16:	687b      	ldr	r3, [r7, #4]
 8002b18:	6153      	str	r3, [r2, #20]
}
 8002b1a:	bf00      	nop
 8002b1c:	370c      	adds	r7, #12
 8002b1e:	46bd      	mov	sp, r7
 8002b20:	f85d 7b04 	ldr.w	r7, [sp], #4
 8002b24:	4770      	bx	lr
 8002b26:	bf00      	nop
 8002b28:	40013c00 	.word	0x40013c00

08002b2c <DMA_Init>:
  * @param  DMA_InitStruct: pointer to a DMA_InitTypeDef structure that contains
  *         the configuration information for the specified DMA Stream.  
  * @retval None
  */
void DMA_Init(DMA_Stream_TypeDef* DMAy_Streamx, DMA_InitTypeDef* DMA_InitStruct)
{
 8002b2c:	b480      	push	{r7}
 8002b2e:	b085      	sub	sp, #20
 8002b30:	af00      	add	r7, sp, #0
 8002b32:	6078      	str	r0, [r7, #4]
 8002b34:	6039      	str	r1, [r7, #0]
  uint32_t tmpreg = 0;
 8002b36:	2300      	movs	r3, #0
 8002b38:	60fb      	str	r3, [r7, #12]
  assert_param(IS_DMA_MEMORY_BURST(DMA_InitStruct->DMA_MemoryBurst));
  assert_param(IS_DMA_PERIPHERAL_BURST(DMA_InitStruct->DMA_PeripheralBurst));

  /*------------------------- DMAy Streamx CR Configuration ------------------*/
  /* Get the DMAy_Streamx CR value */
  tmpreg = DMAy_Streamx->CR;
 8002b3a:	687b      	ldr	r3, [r7, #4]
 8002b3c:	681b      	ldr	r3, [r3, #0]
 8002b3e:	60fb      	str	r3, [r7, #12]

  /* Clear CHSEL, MBURST, PBURST, PL, MSIZE, PSIZE, MINC, PINC, CIRC and DIR bits */
  tmpreg &= ((uint32_t)~(DMA_SxCR_CHSEL | DMA_SxCR_MBURST | DMA_SxCR_PBURST | \
 8002b40:	68fa      	ldr	r2, [r7, #12]
 8002b42:	4b25      	ldr	r3, [pc, #148]	; (8002bd8 <DMA_Init+0xac>)
 8002b44:	4013      	ands	r3, r2
 8002b46:	60fb      	str	r3, [r7, #12]
  /* Set MSIZE bits according to DMA_MemoryDataSize value */
  /* Set CIRC bit according to DMA_Mode value */
  /* Set PL bits according to DMA_Priority value */
  /* Set MBURST bits according to DMA_MemoryBurst value */
  /* Set PBURST bits according to DMA_PeripheralBurst value */
  tmpreg |= DMA_InitStruct->DMA_Channel | DMA_InitStruct->DMA_DIR |
 8002b48:	683b      	ldr	r3, [r7, #0]
 8002b4a:	681a      	ldr	r2, [r3, #0]
 8002b4c:	683b      	ldr	r3, [r7, #0]
 8002b4e:	68db      	ldr	r3, [r3, #12]
 8002b50:	431a      	orrs	r2, r3
            DMA_InitStruct->DMA_PeripheralInc | DMA_InitStruct->DMA_MemoryInc |
 8002b52:	683b      	ldr	r3, [r7, #0]
 8002b54:	695b      	ldr	r3, [r3, #20]
  /* Set MSIZE bits according to DMA_MemoryDataSize value */
  /* Set CIRC bit according to DMA_Mode value */
  /* Set PL bits according to DMA_Priority value */
  /* Set MBURST bits according to DMA_MemoryBurst value */
  /* Set PBURST bits according to DMA_PeripheralBurst value */
  tmpreg |= DMA_InitStruct->DMA_Channel | DMA_InitStruct->DMA_DIR |
 8002b56:	431a      	orrs	r2, r3
            DMA_InitStruct->DMA_PeripheralInc | DMA_InitStruct->DMA_MemoryInc |
 8002b58:	683b      	ldr	r3, [r7, #0]
 8002b5a:	699b      	ldr	r3, [r3, #24]
 8002b5c:	431a      	orrs	r2, r3
            DMA_InitStruct->DMA_PeripheralDataSize | DMA_InitStruct->DMA_MemoryDataSize |
 8002b5e:	683b      	ldr	r3, [r7, #0]
 8002b60:	69db      	ldr	r3, [r3, #28]
  /* Set CIRC bit according to DMA_Mode value */
  /* Set PL bits according to DMA_Priority value */
  /* Set MBURST bits according to DMA_MemoryBurst value */
  /* Set PBURST bits according to DMA_PeripheralBurst value */
  tmpreg |= DMA_InitStruct->DMA_Channel | DMA_InitStruct->DMA_DIR |
            DMA_InitStruct->DMA_PeripheralInc | DMA_InitStruct->DMA_MemoryInc |
 8002b62:	431a      	orrs	r2, r3
            DMA_InitStruct->DMA_PeripheralDataSize | DMA_InitStruct->DMA_MemoryDataSize |
 8002b64:	683b      	ldr	r3, [r7, #0]
 8002b66:	6a1b      	ldr	r3, [r3, #32]
 8002b68:	431a      	orrs	r2, r3
            DMA_InitStruct->DMA_Mode | DMA_InitStruct->DMA_Priority |
 8002b6a:	683b      	ldr	r3, [r7, #0]
 8002b6c:	6a5b      	ldr	r3, [r3, #36]	; 0x24
  /* Set PL bits according to DMA_Priority value */
  /* Set MBURST bits according to DMA_MemoryBurst value */
  /* Set PBURST bits according to DMA_PeripheralBurst value */
  tmpreg |= DMA_InitStruct->DMA_Channel | DMA_InitStruct->DMA_DIR |
            DMA_InitStruct->DMA_PeripheralInc | DMA_InitStruct->DMA_MemoryInc |
            DMA_InitStruct->DMA_PeripheralDataSize | DMA_InitStruct->DMA_MemoryDataSize |
 8002b6e:	431a      	orrs	r2, r3
            DMA_InitStruct->DMA_Mode | DMA_InitStruct->DMA_Priority |
 8002b70:	683b      	ldr	r3, [r7, #0]
 8002b72:	6a9b      	ldr	r3, [r3, #40]	; 0x28
 8002b74:	431a      	orrs	r2, r3
            DMA_InitStruct->DMA_MemoryBurst | DMA_InitStruct->DMA_PeripheralBurst;
 8002b76:	683b      	ldr	r3, [r7, #0]
 8002b78:	6b5b      	ldr	r3, [r3, #52]	; 0x34
  /* Set MBURST bits according to DMA_MemoryBurst value */
  /* Set PBURST bits according to DMA_PeripheralBurst value */
  tmpreg |= DMA_InitStruct->DMA_Channel | DMA_InitStruct->DMA_DIR |
            DMA_InitStruct->DMA_PeripheralInc | DMA_InitStruct->DMA_MemoryInc |
            DMA_InitStruct->DMA_PeripheralDataSize | DMA_InitStruct->DMA_MemoryDataSize |
            DMA_InitStruct->DMA_Mode | DMA_InitStruct->DMA_Priority |
 8002b7a:	431a      	orrs	r2, r3
            DMA_InitStruct->DMA_MemoryBurst | DMA_InitStruct->DMA_PeripheralBurst;
 8002b7c:	683b      	ldr	r3, [r7, #0]
 8002b7e:	6b9b      	ldr	r3, [r3, #56]	; 0x38
 8002b80:	4313      	orrs	r3, r2
  /* Set MSIZE bits according to DMA_MemoryDataSize value */
  /* Set CIRC bit according to DMA_Mode value */
  /* Set PL bits according to DMA_Priority value */
  /* Set MBURST bits according to DMA_MemoryBurst value */
  /* Set PBURST bits according to DMA_PeripheralBurst value */
  tmpreg |= DMA_InitStruct->DMA_Channel | DMA_InitStruct->DMA_DIR |
 8002b82:	68fa      	ldr	r2, [r7, #12]
 8002b84:	4313      	orrs	r3, r2
 8002b86:	60fb      	str	r3, [r7, #12]
            DMA_InitStruct->DMA_PeripheralDataSize | DMA_InitStruct->DMA_MemoryDataSize |
            DMA_InitStruct->DMA_Mode | DMA_InitStruct->DMA_Priority |
            DMA_InitStruct->DMA_MemoryBurst | DMA_InitStruct->DMA_PeripheralBurst;

  /* Write to DMAy Streamx CR register */
  DMAy_Streamx->CR = tmpreg;
 8002b88:	687b      	ldr	r3, [r7, #4]
 8002b8a:	68fa      	ldr	r2, [r7, #12]
 8002b8c:	601a      	str	r2, [r3, #0]

  /*------------------------- DMAy Streamx FCR Configuration -----------------*/
  /* Get the DMAy_Streamx FCR value */
  tmpreg = DMAy_Streamx->FCR;
 8002b8e:	687b      	ldr	r3, [r7, #4]
 8002b90:	695b      	ldr	r3, [r3, #20]
 8002b92:	60fb      	str	r3, [r7, #12]

  /* Clear DMDIS and FTH bits */
  tmpreg &= (uint32_t)~(DMA_SxFCR_DMDIS | DMA_SxFCR_FTH);
 8002b94:	68fb      	ldr	r3, [r7, #12]
 8002b96:	f023 0307 	bic.w	r3, r3, #7
 8002b9a:	60fb      	str	r3, [r7, #12]

  /* Configure DMAy Streamx FIFO: 
    Set DMDIS bits according to DMA_FIFOMode value 
    Set FTH bits according to DMA_FIFOThreshold value */
  tmpreg |= DMA_InitStruct->DMA_FIFOMode | DMA_InitStruct->DMA_FIFOThreshold;
 8002b9c:	683b      	ldr	r3, [r7, #0]
 8002b9e:	6ada      	ldr	r2, [r3, #44]	; 0x2c
 8002ba0:	683b      	ldr	r3, [r7, #0]
 8002ba2:	6b1b      	ldr	r3, [r3, #48]	; 0x30
 8002ba4:	4313      	orrs	r3, r2
 8002ba6:	68fa      	ldr	r2, [r7, #12]
 8002ba8:	4313      	orrs	r3, r2
 8002baa:	60fb      	str	r3, [r7, #12]

  /* Write to DMAy Streamx CR */
  DMAy_Streamx->FCR = tmpreg;
 8002bac:	687b      	ldr	r3, [r7, #4]
 8002bae:	68fa      	ldr	r2, [r7, #12]
 8002bb0:	615a      	str	r2, [r3, #20]

  /*------------------------- DMAy Streamx NDTR Configuration ----------------*/
  /* Write to DMAy Streamx NDTR register */
  DMAy_Streamx->NDTR = DMA_InitStruct->DMA_BufferSize;
 8002bb2:	683b      	ldr	r3, [r7, #0]
 8002bb4:	691a      	ldr	r2, [r3, #16]
 8002bb6:	687b      	ldr	r3, [r7, #4]
 8002bb8:	605a      	str	r2, [r3, #4]

  /*------------------------- DMAy Streamx PAR Configuration -----------------*/
  /* Write to DMAy Streamx PAR */
  DMAy_Streamx->PAR = DMA_InitStruct->DMA_PeripheralBaseAddr;
 8002bba:	683b      	ldr	r3, [r7, #0]
 8002bbc:	685a      	ldr	r2, [r3, #4]
 8002bbe:	687b      	ldr	r3, [r7, #4]
 8002bc0:	609a      	str	r2, [r3, #8]

  /*------------------------- DMAy Streamx M0AR Configuration ----------------*/
  /* Write to DMAy Streamx M0AR */
  DMAy_Streamx->M0AR = DMA_InitStruct->DMA_Memory0BaseAddr;
 8002bc2:	683b      	ldr	r3, [r7, #0]
 8002bc4:	689a      	ldr	r2, [r3, #8]
 8002bc6:	687b      	ldr	r3, [r7, #4]
 8002bc8:	60da      	str	r2, [r3, #12]
}
 8002bca:	bf00      	nop
 8002bcc:	3714      	adds	r7, #20
 8002bce:	46bd      	mov	sp, r7
 8002bd0:	f85d 7b04 	ldr.w	r7, [sp], #4
 8002bd4:	4770      	bx	lr
 8002bd6:	bf00      	nop
 8002bd8:	f01c803f 	.word	0xf01c803f

08002bdc <DMA_Cmd>:
  *        this single data is finished.            
  *    
  * @retval None
  */
void DMA_Cmd(DMA_Stream_TypeDef* DMAy_Streamx, FunctionalState NewState)
{
 8002bdc:	b480      	push	{r7}
 8002bde:	b083      	sub	sp, #12
 8002be0:	af00      	add	r7, sp, #0
 8002be2:	6078      	str	r0, [r7, #4]
 8002be4:	460b      	mov	r3, r1
 8002be6:	70fb      	strb	r3, [r7, #3]
  /* Check the parameters */
  assert_param(IS_DMA_ALL_PERIPH(DMAy_Streamx));
  assert_param(IS_FUNCTIONAL_STATE(NewState));

  if (NewState != DISABLE)
 8002be8:	78fb      	ldrb	r3, [r7, #3]
 8002bea:	2b00      	cmp	r3, #0
 8002bec:	d006      	beq.n	8002bfc <DMA_Cmd+0x20>
  {
    /* Enable the selected DMAy Streamx by setting EN bit */
    DMAy_Streamx->CR |= (uint32_t)DMA_SxCR_EN;
 8002bee:	687b      	ldr	r3, [r7, #4]
 8002bf0:	681b      	ldr	r3, [r3, #0]
 8002bf2:	f043 0201 	orr.w	r2, r3, #1
 8002bf6:	687b      	ldr	r3, [r7, #4]
 8002bf8:	601a      	str	r2, [r3, #0]
  else
  {
    /* Disable the selected DMAy Streamx by clearing EN bit */
    DMAy_Streamx->CR &= ~(uint32_t)DMA_SxCR_EN;
  }
}
 8002bfa:	e005      	b.n	8002c08 <DMA_Cmd+0x2c>
    DMAy_Streamx->CR |= (uint32_t)DMA_SxCR_EN;
  }
  else
  {
    /* Disable the selected DMAy Streamx by clearing EN bit */
    DMAy_Streamx->CR &= ~(uint32_t)DMA_SxCR_EN;
 8002bfc:	687b      	ldr	r3, [r7, #4]
 8002bfe:	681b      	ldr	r3, [r3, #0]
 8002c00:	f023 0201 	bic.w	r2, r3, #1
 8002c04:	687b      	ldr	r3, [r7, #4]
 8002c06:	601a      	str	r2, [r3, #0]
  }
}
 8002c08:	bf00      	nop
 8002c0a:	370c      	adds	r7, #12
 8002c0c:	46bd      	mov	sp, r7
 8002c0e:	f85d 7b04 	ldr.w	r7, [sp], #4
 8002c12:	4770      	bx	lr

08002c14 <DMA_GetCmdStatus>:
  *          of this single data is finished.  
  *      
  * @retval Current state of the DMAy Streamx (ENABLE or DISABLE).
  */
FunctionalState DMA_GetCmdStatus(DMA_Stream_TypeDef* DMAy_Streamx)
{
 8002c14:	b480      	push	{r7}
 8002c16:	b085      	sub	sp, #20
 8002c18:	af00      	add	r7, sp, #0
 8002c1a:	6078      	str	r0, [r7, #4]
  FunctionalState state = DISABLE;
 8002c1c:	2300      	movs	r3, #0
 8002c1e:	73fb      	strb	r3, [r7, #15]

  /* Check the parameters */
  assert_param(IS_DMA_ALL_PERIPH(DMAy_Streamx));

  if ((DMAy_Streamx->CR & (uint32_t)DMA_SxCR_EN) != 0)
 8002c20:	687b      	ldr	r3, [r7, #4]
 8002c22:	681b      	ldr	r3, [r3, #0]
 8002c24:	f003 0301 	and.w	r3, r3, #1
 8002c28:	2b00      	cmp	r3, #0
 8002c2a:	d002      	beq.n	8002c32 <DMA_GetCmdStatus+0x1e>
  {
    /* The selected DMAy Streamx EN bit is set (DMA is still transferring) */
    state = ENABLE;
 8002c2c:	2301      	movs	r3, #1
 8002c2e:	73fb      	strb	r3, [r7, #15]
 8002c30:	e001      	b.n	8002c36 <DMA_GetCmdStatus+0x22>
  }
  else
  {
    /* The selected DMAy Streamx EN bit is cleared (DMA is disabled and 
        all transfers are complete) */
    state = DISABLE;
 8002c32:	2300      	movs	r3, #0
 8002c34:	73fb      	strb	r3, [r7, #15]
  }
  return state;
 8002c36:	7bfb      	ldrb	r3, [r7, #15]
}
 8002c38:	4618      	mov	r0, r3
 8002c3a:	3714      	adds	r7, #20
 8002c3c:	46bd      	mov	sp, r7
 8002c3e:	f85d 7b04 	ldr.w	r7, [sp], #4
 8002c42:	4770      	bx	lr

08002c44 <DMA_GetFlagStatus>:
  *            @arg DMA_FLAG_FEIFx:  Streamx FIFO error flag
  *         Where x can be 0 to 7 to select the DMA Stream.
  * @retval The new state of DMA_FLAG (SET or RESET).
  */
FlagStatus DMA_GetFlagStatus(DMA_Stream_TypeDef* DMAy_Streamx, uint32_t DMA_FLAG)
{
 8002c44:	b480      	push	{r7}
 8002c46:	b087      	sub	sp, #28
 8002c48:	af00      	add	r7, sp, #0
 8002c4a:	6078      	str	r0, [r7, #4]
 8002c4c:	6039      	str	r1, [r7, #0]
  FlagStatus bitstatus = RESET;
 8002c4e:	2300      	movs	r3, #0
 8002c50:	75fb      	strb	r3, [r7, #23]
  DMA_TypeDef* DMAy;
  uint32_t tmpreg = 0;
 8002c52:	2300      	movs	r3, #0
 8002c54:	60fb      	str	r3, [r7, #12]
  /* Check the parameters */
  assert_param(IS_DMA_ALL_PERIPH(DMAy_Streamx));
  assert_param(IS_DMA_GET_FLAG(DMA_FLAG));

  /* Determine the DMA to which belongs the stream */
  if (DMAy_Streamx < DMA2_Stream0)
 8002c56:	687b      	ldr	r3, [r7, #4]
 8002c58:	4a15      	ldr	r2, [pc, #84]	; (8002cb0 <DMA_GetFlagStatus+0x6c>)
 8002c5a:	4293      	cmp	r3, r2
 8002c5c:	d802      	bhi.n	8002c64 <DMA_GetFlagStatus+0x20>
  {
    /* DMAy_Streamx belongs to DMA1 */
    DMAy = DMA1; 
 8002c5e:	4b15      	ldr	r3, [pc, #84]	; (8002cb4 <DMA_GetFlagStatus+0x70>)
 8002c60:	613b      	str	r3, [r7, #16]
 8002c62:	e001      	b.n	8002c68 <DMA_GetFlagStatus+0x24>
  } 
  else 
  {
    /* DMAy_Streamx belongs to DMA2 */
    DMAy = DMA2; 
 8002c64:	4b14      	ldr	r3, [pc, #80]	; (8002cb8 <DMA_GetFlagStatus+0x74>)
 8002c66:	613b      	str	r3, [r7, #16]
  }

  /* Check if the flag is in HISR or LISR */
  if ((DMA_FLAG & HIGH_ISR_MASK) != (uint32_t)RESET)
 8002c68:	683b      	ldr	r3, [r7, #0]
 8002c6a:	f003 5300 	and.w	r3, r3, #536870912	; 0x20000000
 8002c6e:	2b00      	cmp	r3, #0
 8002c70:	d003      	beq.n	8002c7a <DMA_GetFlagStatus+0x36>
  {
    /* Get DMAy HISR register value */
    tmpreg = DMAy->HISR;
 8002c72:	693b      	ldr	r3, [r7, #16]
 8002c74:	685b      	ldr	r3, [r3, #4]
 8002c76:	60fb      	str	r3, [r7, #12]
 8002c78:	e002      	b.n	8002c80 <DMA_GetFlagStatus+0x3c>
  }
  else
  {
    /* Get DMAy LISR register value */
    tmpreg = DMAy->LISR;
 8002c7a:	693b      	ldr	r3, [r7, #16]
 8002c7c:	681b      	ldr	r3, [r3, #0]
 8002c7e:	60fb      	str	r3, [r7, #12]
  }   
 
  /* Mask the reserved bits */
  tmpreg &= (uint32_t)RESERVED_MASK;
 8002c80:	68fb      	ldr	r3, [r7, #12]
 8002c82:	f023 23f0 	bic.w	r3, r3, #4026593280	; 0xf000f000
 8002c86:	f023 1382 	bic.w	r3, r3, #8519810	; 0x820082
 8002c8a:	60fb      	str	r3, [r7, #12]

  /* Check the status of the specified DMA flag */
  if ((tmpreg & DMA_FLAG) != (uint32_t)RESET)
 8002c8c:	68fa      	ldr	r2, [r7, #12]
 8002c8e:	683b      	ldr	r3, [r7, #0]
 8002c90:	4013      	ands	r3, r2
 8002c92:	2b00      	cmp	r3, #0
 8002c94:	d002      	beq.n	8002c9c <DMA_GetFlagStatus+0x58>
  {
    /* DMA_FLAG is set */
    bitstatus = SET;
 8002c96:	2301      	movs	r3, #1
 8002c98:	75fb      	strb	r3, [r7, #23]
 8002c9a:	e001      	b.n	8002ca0 <DMA_GetFlagStatus+0x5c>
  }
  else
  {
    /* DMA_FLAG is reset */
    bitstatus = RESET;
 8002c9c:	2300      	movs	r3, #0
 8002c9e:	75fb      	strb	r3, [r7, #23]
  }

  /* Return the DMA_FLAG status */
  return  bitstatus;
 8002ca0:	7dfb      	ldrb	r3, [r7, #23]
}
 8002ca2:	4618      	mov	r0, r3
 8002ca4:	371c      	adds	r7, #28
 8002ca6:	46bd      	mov	sp, r7
 8002ca8:	f85d 7b04 	ldr.w	r7, [sp], #4
 8002cac:	4770      	bx	lr
 8002cae:	bf00      	nop
 8002cb0:	4002640f 	.word	0x4002640f
 8002cb4:	40026000 	.word	0x40026000
 8002cb8:	40026400 	.word	0x40026400

08002cbc <DMA_ClearFlag>:
  *            @arg DMA_FLAG_FEIFx:  Streamx FIFO error flag
  *         Where x can be 0 to 7 to select the DMA Stream.   
  * @retval None
  */
void DMA_ClearFlag(DMA_Stream_TypeDef* DMAy_Streamx, uint32_t DMA_FLAG)
{
 8002cbc:	b480      	push	{r7}
 8002cbe:	b085      	sub	sp, #20
 8002cc0:	af00      	add	r7, sp, #0
 8002cc2:	6078      	str	r0, [r7, #4]
 8002cc4:	6039      	str	r1, [r7, #0]
  /* Check the parameters */
  assert_param(IS_DMA_ALL_PERIPH(DMAy_Streamx));
  assert_param(IS_DMA_CLEAR_FLAG(DMA_FLAG));

  /* Determine the DMA to which belongs the stream */
  if (DMAy_Streamx < DMA2_Stream0)
 8002cc6:	687b      	ldr	r3, [r7, #4]
 8002cc8:	4a10      	ldr	r2, [pc, #64]	; (8002d0c <DMA_ClearFlag+0x50>)
 8002cca:	4293      	cmp	r3, r2
 8002ccc:	d802      	bhi.n	8002cd4 <DMA_ClearFlag+0x18>
  {
    /* DMAy_Streamx belongs to DMA1 */
    DMAy = DMA1; 
 8002cce:	4b10      	ldr	r3, [pc, #64]	; (8002d10 <DMA_ClearFlag+0x54>)
 8002cd0:	60fb      	str	r3, [r7, #12]
 8002cd2:	e001      	b.n	8002cd8 <DMA_ClearFlag+0x1c>
  } 
  else 
  {
    /* DMAy_Streamx belongs to DMA2 */
    DMAy = DMA2; 
 8002cd4:	4b0f      	ldr	r3, [pc, #60]	; (8002d14 <DMA_ClearFlag+0x58>)
 8002cd6:	60fb      	str	r3, [r7, #12]
  }

  /* Check if LIFCR or HIFCR register is targeted */
  if ((DMA_FLAG & HIGH_ISR_MASK) != (uint32_t)RESET)
 8002cd8:	683b      	ldr	r3, [r7, #0]
 8002cda:	f003 5300 	and.w	r3, r3, #536870912	; 0x20000000
 8002cde:	2b00      	cmp	r3, #0
 8002ce0:	d007      	beq.n	8002cf2 <DMA_ClearFlag+0x36>
  {
    /* Set DMAy HIFCR register clear flag bits */
    DMAy->HIFCR = (uint32_t)(DMA_FLAG & RESERVED_MASK);
 8002ce2:	683b      	ldr	r3, [r7, #0]
 8002ce4:	f023 23f0 	bic.w	r3, r3, #4026593280	; 0xf000f000
 8002ce8:	f023 1382 	bic.w	r3, r3, #8519810	; 0x820082
 8002cec:	68fa      	ldr	r2, [r7, #12]
 8002cee:	60d3      	str	r3, [r2, #12]
  else 
  {
    /* Set DMAy LIFCR register clear flag bits */
    DMAy->LIFCR = (uint32_t)(DMA_FLAG & RESERVED_MASK);
  }    
}
 8002cf0:	e006      	b.n	8002d00 <DMA_ClearFlag+0x44>
    DMAy->HIFCR = (uint32_t)(DMA_FLAG & RESERVED_MASK);
  }
  else 
  {
    /* Set DMAy LIFCR register clear flag bits */
    DMAy->LIFCR = (uint32_t)(DMA_FLAG & RESERVED_MASK);
 8002cf2:	683b      	ldr	r3, [r7, #0]
 8002cf4:	f023 23f0 	bic.w	r3, r3, #4026593280	; 0xf000f000
 8002cf8:	f023 1382 	bic.w	r3, r3, #8519810	; 0x820082
 8002cfc:	68fa      	ldr	r2, [r7, #12]
 8002cfe:	6093      	str	r3, [r2, #8]
  }    
}
 8002d00:	bf00      	nop
 8002d02:	3714      	adds	r7, #20
 8002d04:	46bd      	mov	sp, r7
 8002d06:	f85d 7b04 	ldr.w	r7, [sp], #4
 8002d0a:	4770      	bx	lr
 8002d0c:	4002640f 	.word	0x4002640f
 8002d10:	40026000 	.word	0x40026000
 8002d14:	40026400 	.word	0x40026400

08002d18 <DAC_SetChannel1Data>:
  *            @arg DAC_Align_12b_R: 12bit right data alignment selected
  * @param  Data: Data to be loaded in the selected data holding register.
  * @retval None
  */
void DAC_SetChannel1Data(uint32_t DAC_Align, uint16_t Data)
{  
 8002d18:	b480      	push	{r7}
 8002d1a:	b085      	sub	sp, #20
 8002d1c:	af00      	add	r7, sp, #0
 8002d1e:	6078      	str	r0, [r7, #4]
 8002d20:	460b      	mov	r3, r1
 8002d22:	807b      	strh	r3, [r7, #2]
  __IO uint32_t tmp = 0;
 8002d24:	2300      	movs	r3, #0
 8002d26:	60fb      	str	r3, [r7, #12]
  
  /* Check the parameters */
  assert_param(IS_DAC_ALIGN(DAC_Align));
  assert_param(IS_DAC_DATA(Data));
  
  tmp = (uint32_t)DAC_BASE; 
 8002d28:	4b08      	ldr	r3, [pc, #32]	; (8002d4c <DAC_SetChannel1Data+0x34>)
 8002d2a:	60fb      	str	r3, [r7, #12]
  tmp += DHR12R1_OFFSET + DAC_Align;
 8002d2c:	68fa      	ldr	r2, [r7, #12]
 8002d2e:	687b      	ldr	r3, [r7, #4]
 8002d30:	4413      	add	r3, r2
 8002d32:	3308      	adds	r3, #8
 8002d34:	60fb      	str	r3, [r7, #12]

  /* Set the DAC channel1 selected data holding register */
  *(__IO uint32_t *) tmp = Data;
 8002d36:	68fb      	ldr	r3, [r7, #12]
 8002d38:	461a      	mov	r2, r3
 8002d3a:	887b      	ldrh	r3, [r7, #2]
 8002d3c:	6013      	str	r3, [r2, #0]
}
 8002d3e:	bf00      	nop
 8002d40:	3714      	adds	r7, #20
 8002d42:	46bd      	mov	sp, r7
 8002d44:	f85d 7b04 	ldr.w	r7, [sp], #4
 8002d48:	4770      	bx	lr
 8002d4a:	bf00      	nop
 8002d4c:	40007400 	.word	0x40007400

08002d50 <NVIC_Init>:
  * @param  NVIC_InitStruct: pointer to a NVIC_InitTypeDef structure that contains
  *         the configuration information for the specified NVIC peripheral.
  * @retval None
  */
void NVIC_Init(NVIC_InitTypeDef* NVIC_InitStruct)
{
 8002d50:	b480      	push	{r7}
 8002d52:	b085      	sub	sp, #20
 8002d54:	af00      	add	r7, sp, #0
 8002d56:	6078      	str	r0, [r7, #4]
  uint8_t tmppriority = 0x00, tmppre = 0x00, tmpsub = 0x0F;
 8002d58:	2300      	movs	r3, #0
 8002d5a:	73fb      	strb	r3, [r7, #15]
 8002d5c:	2300      	movs	r3, #0
 8002d5e:	73bb      	strb	r3, [r7, #14]
 8002d60:	230f      	movs	r3, #15
 8002d62:	737b      	strb	r3, [r7, #13]
  /* Check the parameters */
  assert_param(IS_FUNCTIONAL_STATE(NVIC_InitStruct->NVIC_IRQChannelCmd));
  assert_param(IS_NVIC_PREEMPTION_PRIORITY(NVIC_InitStruct->NVIC_IRQChannelPreemptionPriority));  
  assert_param(IS_NVIC_SUB_PRIORITY(NVIC_InitStruct->NVIC_IRQChannelSubPriority));
    
  if (NVIC_InitStruct->NVIC_IRQChannelCmd != DISABLE)
 8002d64:	687b      	ldr	r3, [r7, #4]
 8002d66:	78db      	ldrb	r3, [r3, #3]
 8002d68:	2b00      	cmp	r3, #0
 8002d6a:	d038      	beq.n	8002dde <NVIC_Init+0x8e>
  {
    /* Compute the Corresponding IRQ Priority --------------------------------*/    
    tmppriority = (0x700 - ((SCB->AIRCR) & (uint32_t)0x700))>> 0x08;
 8002d6c:	4b27      	ldr	r3, [pc, #156]	; (8002e0c <NVIC_Init+0xbc>)
 8002d6e:	68db      	ldr	r3, [r3, #12]
 8002d70:	43db      	mvns	r3, r3
 8002d72:	f403 63e0 	and.w	r3, r3, #1792	; 0x700
 8002d76:	0a1b      	lsrs	r3, r3, #8
 8002d78:	73fb      	strb	r3, [r7, #15]
    tmppre = (0x4 - tmppriority);
 8002d7a:	7bfb      	ldrb	r3, [r7, #15]
 8002d7c:	f1c3 0304 	rsb	r3, r3, #4
 8002d80:	73bb      	strb	r3, [r7, #14]
    tmpsub = tmpsub >> tmppriority;
 8002d82:	7b7a      	ldrb	r2, [r7, #13]
 8002d84:	7bfb      	ldrb	r3, [r7, #15]
 8002d86:	fa42 f303 	asr.w	r3, r2, r3
 8002d8a:	737b      	strb	r3, [r7, #13]

    tmppriority = NVIC_InitStruct->NVIC_IRQChannelPreemptionPriority << tmppre;
 8002d8c:	687b      	ldr	r3, [r7, #4]
 8002d8e:	785b      	ldrb	r3, [r3, #1]
 8002d90:	461a      	mov	r2, r3
 8002d92:	7bbb      	ldrb	r3, [r7, #14]
 8002d94:	fa02 f303 	lsl.w	r3, r2, r3
 8002d98:	73fb      	strb	r3, [r7, #15]
    tmppriority |=  (uint8_t)(NVIC_InitStruct->NVIC_IRQChannelSubPriority & tmpsub);
 8002d9a:	687b      	ldr	r3, [r7, #4]
 8002d9c:	789a      	ldrb	r2, [r3, #2]
 8002d9e:	7b7b      	ldrb	r3, [r7, #13]
 8002da0:	4013      	ands	r3, r2
 8002da2:	b2da      	uxtb	r2, r3
 8002da4:	7bfb      	ldrb	r3, [r7, #15]
 8002da6:	4313      	orrs	r3, r2
 8002da8:	73fb      	strb	r3, [r7, #15]
        
    tmppriority = tmppriority << 0x04;
 8002daa:	7bfb      	ldrb	r3, [r7, #15]
 8002dac:	011b      	lsls	r3, r3, #4
 8002dae:	73fb      	strb	r3, [r7, #15]
        
    NVIC->IP[NVIC_InitStruct->NVIC_IRQChannel] = tmppriority;
 8002db0:	4a17      	ldr	r2, [pc, #92]	; (8002e10 <NVIC_Init+0xc0>)
 8002db2:	687b      	ldr	r3, [r7, #4]
 8002db4:	781b      	ldrb	r3, [r3, #0]
 8002db6:	4413      	add	r3, r2
 8002db8:	7bfa      	ldrb	r2, [r7, #15]
 8002dba:	f883 2300 	strb.w	r2, [r3, #768]	; 0x300
    
    /* Enable the Selected IRQ Channels --------------------------------------*/
    NVIC->ISER[NVIC_InitStruct->NVIC_IRQChannel >> 0x05] =
 8002dbe:	4a14      	ldr	r2, [pc, #80]	; (8002e10 <NVIC_Init+0xc0>)
 8002dc0:	687b      	ldr	r3, [r7, #4]
 8002dc2:	781b      	ldrb	r3, [r3, #0]
 8002dc4:	095b      	lsrs	r3, r3, #5
 8002dc6:	b2db      	uxtb	r3, r3
 8002dc8:	4618      	mov	r0, r3
      (uint32_t)0x01 << (NVIC_InitStruct->NVIC_IRQChannel & (uint8_t)0x1F);
 8002dca:	687b      	ldr	r3, [r7, #4]
 8002dcc:	781b      	ldrb	r3, [r3, #0]
 8002dce:	f003 031f 	and.w	r3, r3, #31
 8002dd2:	2101      	movs	r1, #1
 8002dd4:	fa01 f303 	lsl.w	r3, r1, r3
    tmppriority = tmppriority << 0x04;
        
    NVIC->IP[NVIC_InitStruct->NVIC_IRQChannel] = tmppriority;
    
    /* Enable the Selected IRQ Channels --------------------------------------*/
    NVIC->ISER[NVIC_InitStruct->NVIC_IRQChannel >> 0x05] =
 8002dd8:	f842 3020 	str.w	r3, [r2, r0, lsl #2]
  {
    /* Disable the Selected IRQ Channels -------------------------------------*/
    NVIC->ICER[NVIC_InitStruct->NVIC_IRQChannel >> 0x05] =
      (uint32_t)0x01 << (NVIC_InitStruct->NVIC_IRQChannel & (uint8_t)0x1F);
  }
}
 8002ddc:	e00f      	b.n	8002dfe <NVIC_Init+0xae>
      (uint32_t)0x01 << (NVIC_InitStruct->NVIC_IRQChannel & (uint8_t)0x1F);
  }
  else
  {
    /* Disable the Selected IRQ Channels -------------------------------------*/
    NVIC->ICER[NVIC_InitStruct->NVIC_IRQChannel >> 0x05] =
 8002dde:	490c      	ldr	r1, [pc, #48]	; (8002e10 <NVIC_Init+0xc0>)
 8002de0:	687b      	ldr	r3, [r7, #4]
 8002de2:	781b      	ldrb	r3, [r3, #0]
 8002de4:	095b      	lsrs	r3, r3, #5
 8002de6:	b2db      	uxtb	r3, r3
 8002de8:	4618      	mov	r0, r3
      (uint32_t)0x01 << (NVIC_InitStruct->NVIC_IRQChannel & (uint8_t)0x1F);
 8002dea:	687b      	ldr	r3, [r7, #4]
 8002dec:	781b      	ldrb	r3, [r3, #0]
 8002dee:	f003 031f 	and.w	r3, r3, #31
 8002df2:	2201      	movs	r2, #1
 8002df4:	409a      	lsls	r2, r3
      (uint32_t)0x01 << (NVIC_InitStruct->NVIC_IRQChannel & (uint8_t)0x1F);
  }
  else
  {
    /* Disable the Selected IRQ Channels -------------------------------------*/
    NVIC->ICER[NVIC_InitStruct->NVIC_IRQChannel >> 0x05] =
 8002df6:	f100 0320 	add.w	r3, r0, #32
 8002dfa:	f841 2023 	str.w	r2, [r1, r3, lsl #2]
      (uint32_t)0x01 << (NVIC_InitStruct->NVIC_IRQChannel & (uint8_t)0x1F);
  }
}
 8002dfe:	bf00      	nop
 8002e00:	3714      	adds	r7, #20
 8002e02:	46bd      	mov	sp, r7
 8002e04:	f85d 7b04 	ldr.w	r7, [sp], #4
 8002e08:	4770      	bx	lr
 8002e0a:	bf00      	nop
 8002e0c:	e000ed00 	.word	0xe000ed00
 8002e10:	e000e100 	.word	0xe000e100

08002e14 <__cxa_pure_virtual>:
 8002e14:	b508      	push	{r3, lr}
 8002e16:	f000 f80d 	bl	8002e34 <_ZSt9terminatev>

08002e1a <_ZN10__cxxabiv111__terminateEPFvvE>:
 8002e1a:	b508      	push	{r3, lr}
 8002e1c:	4780      	blx	r0
 8002e1e:	f000 f80e 	bl	8002e3e <abort>
	...

08002e24 <_ZSt13get_terminatev>:
 8002e24:	4b02      	ldr	r3, [pc, #8]	; (8002e30 <_ZSt13get_terminatev+0xc>)
 8002e26:	6818      	ldr	r0, [r3, #0]
 8002e28:	f3bf 8f5f 	dmb	sy
 8002e2c:	4770      	bx	lr
 8002e2e:	bf00      	nop
 8002e30:	20000024 	.word	0x20000024

08002e34 <_ZSt9terminatev>:
 8002e34:	b508      	push	{r3, lr}
 8002e36:	f7ff fff5 	bl	8002e24 <_ZSt13get_terminatev>
 8002e3a:	f7ff ffee 	bl	8002e1a <_ZN10__cxxabiv111__terminateEPFvvE>

08002e3e <abort>:
 8002e3e:	b508      	push	{r3, lr}
 8002e40:	2006      	movs	r0, #6
 8002e42:	f000 f853 	bl	8002eec <raise>
 8002e46:	2001      	movs	r0, #1
 8002e48:	f000 f87c 	bl	8002f44 <_exit>

08002e4c <__libc_init_array>:
 8002e4c:	b570      	push	{r4, r5, r6, lr}
 8002e4e:	4b0e      	ldr	r3, [pc, #56]	; (8002e88 <__libc_init_array+0x3c>)
 8002e50:	4c0e      	ldr	r4, [pc, #56]	; (8002e8c <__libc_init_array+0x40>)
 8002e52:	1ae4      	subs	r4, r4, r3
 8002e54:	10a4      	asrs	r4, r4, #2
 8002e56:	2500      	movs	r5, #0
 8002e58:	461e      	mov	r6, r3
 8002e5a:	42a5      	cmp	r5, r4
 8002e5c:	d004      	beq.n	8002e68 <__libc_init_array+0x1c>
 8002e5e:	f856 3025 	ldr.w	r3, [r6, r5, lsl #2]
 8002e62:	4798      	blx	r3
 8002e64:	3501      	adds	r5, #1
 8002e66:	e7f8      	b.n	8002e5a <__libc_init_array+0xe>
 8002e68:	f000 f86e 	bl	8002f48 <_init>
 8002e6c:	4c08      	ldr	r4, [pc, #32]	; (8002e90 <__libc_init_array+0x44>)
 8002e6e:	4b09      	ldr	r3, [pc, #36]	; (8002e94 <__libc_init_array+0x48>)
 8002e70:	1ae4      	subs	r4, r4, r3
 8002e72:	10a4      	asrs	r4, r4, #2
 8002e74:	2500      	movs	r5, #0
 8002e76:	461e      	mov	r6, r3
 8002e78:	42a5      	cmp	r5, r4
 8002e7a:	d004      	beq.n	8002e86 <__libc_init_array+0x3a>
 8002e7c:	f856 3025 	ldr.w	r3, [r6, r5, lsl #2]
 8002e80:	4798      	blx	r3
 8002e82:	3501      	adds	r5, #1
 8002e84:	e7f8      	b.n	8002e78 <__libc_init_array+0x2c>
 8002e86:	bd70      	pop	{r4, r5, r6, pc}
 8002e88:	08002fb8 	.word	0x08002fb8
 8002e8c:	08002fb8 	.word	0x08002fb8
 8002e90:	08002fbc 	.word	0x08002fbc
 8002e94:	08002fb8 	.word	0x08002fb8

08002e98 <_raise_r>:
 8002e98:	291f      	cmp	r1, #31
 8002e9a:	b538      	push	{r3, r4, r5, lr}
 8002e9c:	4604      	mov	r4, r0
 8002e9e:	460d      	mov	r5, r1
 8002ea0:	d904      	bls.n	8002eac <_raise_r+0x14>
 8002ea2:	2316      	movs	r3, #22
 8002ea4:	6003      	str	r3, [r0, #0]
 8002ea6:	f04f 30ff 	mov.w	r0, #4294967295
 8002eaa:	bd38      	pop	{r3, r4, r5, pc}
 8002eac:	6c42      	ldr	r2, [r0, #68]	; 0x44
 8002eae:	b112      	cbz	r2, 8002eb6 <_raise_r+0x1e>
 8002eb0:	f852 3021 	ldr.w	r3, [r2, r1, lsl #2]
 8002eb4:	b94b      	cbnz	r3, 8002eca <_raise_r+0x32>
 8002eb6:	4620      	mov	r0, r4
 8002eb8:	f000 f832 	bl	8002f20 <_getpid_r>
 8002ebc:	462a      	mov	r2, r5
 8002ebe:	4601      	mov	r1, r0
 8002ec0:	4620      	mov	r0, r4
 8002ec2:	e8bd 4038 	ldmia.w	sp!, {r3, r4, r5, lr}
 8002ec6:	f000 b819 	b.w	8002efc <_kill_r>
 8002eca:	2b01      	cmp	r3, #1
 8002ecc:	d00c      	beq.n	8002ee8 <_raise_r+0x50>
 8002ece:	1c59      	adds	r1, r3, #1
 8002ed0:	d103      	bne.n	8002eda <_raise_r+0x42>
 8002ed2:	2316      	movs	r3, #22
 8002ed4:	6003      	str	r3, [r0, #0]
 8002ed6:	2001      	movs	r0, #1
 8002ed8:	bd38      	pop	{r3, r4, r5, pc}
 8002eda:	2400      	movs	r4, #0
 8002edc:	4628      	mov	r0, r5
 8002ede:	f842 4025 	str.w	r4, [r2, r5, lsl #2]
 8002ee2:	4798      	blx	r3
 8002ee4:	4620      	mov	r0, r4
 8002ee6:	bd38      	pop	{r3, r4, r5, pc}
 8002ee8:	2000      	movs	r0, #0
 8002eea:	bd38      	pop	{r3, r4, r5, pc}

08002eec <raise>:
 8002eec:	4b02      	ldr	r3, [pc, #8]	; (8002ef8 <raise+0xc>)
 8002eee:	4601      	mov	r1, r0
 8002ef0:	6818      	ldr	r0, [r3, #0]
 8002ef2:	f7ff bfd1 	b.w	8002e98 <_raise_r>
 8002ef6:	bf00      	nop
 8002ef8:	20000088 	.word	0x20000088

08002efc <_kill_r>:
 8002efc:	b538      	push	{r3, r4, r5, lr}
 8002efe:	4c07      	ldr	r4, [pc, #28]	; (8002f1c <_kill_r+0x20>)
 8002f00:	2300      	movs	r3, #0
 8002f02:	4605      	mov	r5, r0
 8002f04:	4608      	mov	r0, r1
 8002f06:	4611      	mov	r1, r2
 8002f08:	6023      	str	r3, [r4, #0]
 8002f0a:	f000 f813 	bl	8002f34 <_kill>
 8002f0e:	1c43      	adds	r3, r0, #1
 8002f10:	d102      	bne.n	8002f18 <_kill_r+0x1c>
 8002f12:	6823      	ldr	r3, [r4, #0]
 8002f14:	b103      	cbz	r3, 8002f18 <_kill_r+0x1c>
 8002f16:	602b      	str	r3, [r5, #0]
 8002f18:	bd38      	pop	{r3, r4, r5, pc}
 8002f1a:	bf00      	nop
 8002f1c:	20000150 	.word	0x20000150

08002f20 <_getpid_r>:
 8002f20:	f000 b800 	b.w	8002f24 <_getpid>

08002f24 <_getpid>:
 8002f24:	4b02      	ldr	r3, [pc, #8]	; (8002f30 <_getpid+0xc>)
 8002f26:	2258      	movs	r2, #88	; 0x58
 8002f28:	601a      	str	r2, [r3, #0]
 8002f2a:	f04f 30ff 	mov.w	r0, #4294967295
 8002f2e:	4770      	bx	lr
 8002f30:	20000150 	.word	0x20000150

08002f34 <_kill>:
 8002f34:	4b02      	ldr	r3, [pc, #8]	; (8002f40 <_kill+0xc>)
 8002f36:	2258      	movs	r2, #88	; 0x58
 8002f38:	601a      	str	r2, [r3, #0]
 8002f3a:	f04f 30ff 	mov.w	r0, #4294967295
 8002f3e:	4770      	bx	lr
 8002f40:	20000150 	.word	0x20000150

08002f44 <_exit>:
 8002f44:	e7fe      	b.n	8002f44 <_exit>
	...

08002f48 <_init>:
 8002f48:	b5f8      	push	{r3, r4, r5, r6, r7, lr}
 8002f4a:	bf00      	nop
 8002f4c:	bcf8      	pop	{r3, r4, r5, r6, r7}
 8002f4e:	bc08      	pop	{r3}
 8002f50:	469e      	mov	lr, r3
 8002f52:	4770      	bx	lr

08002f54 <_fini>:
 8002f54:	b5f8      	push	{r3, r4, r5, r6, r7, lr}
 8002f56:	bf00      	nop
 8002f58:	bcf8      	pop	{r3, r4, r5, r6, r7}
 8002f5a:	bc08      	pop	{r3}
 8002f5c:	469e      	mov	lr, r3
 8002f5e:	4770      	bx	lr
